(dp0
S'parameterArray'
p1
(lp2
(dp3
S'num_elements'
p4
cnumpy.core.multiarray
scalar
p5
(cnumpy
dtype
p6
(S'f8'
p7
I0
I1
tp8
Rp9
(I3
S'<'
p10
NNNI-1
I-1
I0
tp11
bS'\x00\x00\x00\x00\x00@\x9f@'
p12
tp13
Rp14
sS'baseline_color_for_task'
p15
F0.75
sS'orientation'
p16
g5
(g9
S'u\xa7\xbb\xe9\xbb\xfd\x15@'
p17
tp18
Rp19
sS'element_size'
p20
F45.0
sS'task_index'
p21
g5
(g6
(S'i8'
p22
I0
I1
tp23
Rp24
(I3
S'<'
p25
NNNI-1
I-1
I0
tp26
bS'\x00\x00\x00\x00\x00\x00\x00\x00'
p27
tp28
Rp29
sS'period'
p30
F36.0
sS'mapper_period'
p31
F3.0
sS'bar_width_ratio'
p32
F0.125
sS'refresh_frequency_mapper'
p33
F0.3333333333333333
sS'baseline_speed_for_task'
p34
F5.0
sS'unique_task'
p35
I0
sS'element_spatial_frequency'
p36
F2.0
sS'stim_size'
p37
F0.66667
sS'task_rate'
p38
F3.0
sS'refresh_frequency'
p39
F2.0
sasS'eventArray'
p40
(lp41
(lp42
S'trial 0 started at 2.55525898933'
p43
a(lp44
I-99
aF0.7520391941070557
aaS'trial 0 key: escape at time: 3.30731797218'
p45
aS'trial 0 event escape at 3.30733013153'
p46
aas.