(dp0
S'parameterArray'
p1
(lp2
(dp3
S'num_elements'
p4
cnumpy.core.multiarray
scalar
p5
(cnumpy
dtype
p6
(S'f8'
p7
I0
I1
tp8
Rp9
(I3
S'<'
p10
NNNI-1
I-1
I0
tp11
bS'\x00\x00\x00\x00\x00@\x9f@'
p12
tp13
Rp14
sS'baseline_color_for_task'
p15
F0.75
sS'orientation'
p16
g5
(g9
S'\x18-DT\xfb!\xf9?'
p17
tp18
Rp19
sS'element_size'
p20
F45.0
sS'task_index'
p21
g5
(g6
(S'i8'
p22
I0
I1
tp23
Rp24
(I3
S'<'
p25
NNNI-1
I-1
I0
tp26
bS'\x03\x00\x00\x00\x00\x00\x00\x00'
p27
tp28
Rp29
sS'period'
p30
F36.0
sS'mapper_period'
p31
F3.0
sS'bar_width_ratio'
p32
F0.125
sS'refresh_frequency_mapper'
p33
F0.3333333333333333
sS'baseline_speed_for_task'
p34
F5.0
sS'unique_task'
p35
I1
sS'element_spatial_frequency'
p36
F2.0
sS'stim_size'
p37
F0.66667
sS'task_rate'
p38
F3.0
sS'refresh_frequency'
p39
F2.0
sasS'eventArray'
p40
(lp41
(lp42
S'trial 0 started at 2.16056084633'
p43
aS'trial 0 key: m at time: 13.5012159348'
p44
aS'trial 0 event m at 13.5012290478'
p45
a(lp46
I99
aF12.248340129852295
aaS'trial 0 phase 1 started at 14.4089188576'
p47
aS'trial 0 key: t at time: 14.4089329243'
p48
aS'trial 0 event t at 14.4089410305'
p49
aS'trial 0 phase 2 started at 19.4089779854'
p50
aS'trial 0 phase 3 started at 22.4103829861'
p51
aS'stimulus draw for phase 0.000002, at 22.421521'
p52
aS'stimulus draw for phase 0.013895, at 22.921633'
p53
aS'stimulus draw for phase 0.027792, at 23.421778'
p54
aS'stimulus draw for phase 0.041681, at 23.921839'
p55
a(lp56
I-99
aF22.11908197402954
aaS'trial 0 key: escape at time: 24.2796728611'
p57
aS'trial 0 event escape at 24.2796838284'
p58
aas.