(dp0
S'parameterArray'
p1
(lp2
(dp3
S'num_elements'
p4
I2000
sS'baseline_color_for_task'
p5
F0.75
sS'task'
p6
S'no_color_yes_speed'
p7
sS'orientation'
p8
cnumpy.core.multiarray
scalar
p9
(cnumpy
dtype
p10
(S'f8'
p11
I0
I1
tp12
Rp13
(I3
S'<'
p14
NNNI-1
I-1
I0
tp15
bS'\xd2!3\x7f|\xd9\x12@'
p16
tp17
Rp18
sS'element_size'
p19
F45.0
sS'task_index'
p20
g9
(g10
(S'i8'
p21
I0
I1
tp22
Rp23
(I3
S'<'
p24
NNNI-1
I-1
I0
tp25
bS'\x02\x00\x00\x00\x00\x00\x00\x00'
p26
tp27
Rp28
sS'period'
p29
F36.0
sS'mapper_period'
p30
F3.0
sS'bar_width_ratio'
p31
F0.1
sS'refresh_frequency_mapper'
p32
F0.3333333333333333
sS'baseline_speed_for_task'
p33
F5.0
sS'element_spatial_frequency'
p34
F2.0
sS'stim_size'
p35
F0.66667
sS'task_rate'
p36
F3.0
sS'refresh_frequency'
p37
F2.0
sa(dp38
g4
I2000
sg5
F0.75
sg6
g7
sg8
g9
(g13
S'\x00\x00\x00\x00\x00\x00\x00\x00'
p39
tp40
Rp41
sg19
F45.0
sg20
g9
(g23
S'\x02\x00\x00\x00\x00\x00\x00\x00'
p42
tp43
Rp44
sg29
F36.0
sg30
F3.0
sg31
F0.1
sg32
F0.3333333333333333
sg33
F5.0
sg34
F2.0
sg35
F0.66667
sg36
F3.0
sg37
F2.0
sa(dp45
g4
I2000
sg5
F0.75
sg6
S'fix_no_stim'
p46
sg8
g9
(g13
S'\xd2!3\x7f|\xd9\x02@'
p47
tp48
Rp49
sg19
F45.0
sg20
g9
(g23
S'\x04\x00\x00\x00\x00\x00\x00\x00'
p50
tp51
Rp52
sg29
F36.0
sg30
F3.0
sg31
F0.1
sg32
F0.3333333333333333
sg33
F5.0
sg34
F2.0
sg35
F0.66667
sg36
F3.0
sg37
F2.0
sa(dp53
g4
I2000
sg5
F0.75
sg6
g7
sg8
g9
(g13
S'\xd2!3\x7f|\xd9\x02@'
p54
tp55
Rp56
sg19
F45.0
sg20
g9
(g23
S'\x02\x00\x00\x00\x00\x00\x00\x00'
p57
tp58
Rp59
sg29
F36.0
sg30
F3.0
sg31
F0.1
sg32
F0.3333333333333333
sg33
F5.0
sg34
F2.0
sg35
F0.66667
sg36
F3.0
sg37
F2.0
sa(dp60
g4
I2000
sg5
F0.75
sg6
S'yes_color_yes_speed'
p61
sg8
g9
(g13
S'\x18-DT\xfb!\xf9?'
p62
tp63
Rp64
sg19
F45.0
sg20
g9
(g23
S'\x03\x00\x00\x00\x00\x00\x00\x00'
p65
tp66
Rp67
sg29
F36.0
sg30
F3.0
sg31
F0.1
sg32
F0.3333333333333333
sg33
F5.0
sg34
F2.0
sg35
F0.66667
sg36
F3.0
sg37
F2.0
sa(dp68
g4
I2000
sg5
F0.75
sg6
g61
sg8
g9
(g13
S'\x18-DT\xfb!\xe9?'
p69
tp70
Rp71
sg19
F45.0
sg20
g9
(g23
S'\x03\x00\x00\x00\x00\x00\x00\x00'
p72
tp73
Rp74
sg29
F36.0
sg30
F3.0
sg31
F0.1
sg32
F0.3333333333333333
sg33
F5.0
sg34
F2.0
sg35
F0.66667
sg36
F3.0
sg37
F2.0
sasS'eventArray'
p75
(lp76
(lp77
S'trial 0 started at 2.27364492416'
p78
a(lp79
I99
aF0.010806083679199219
aaS'trial 0 phase 1 started at 2.28445792198'
p80
aS'trial 0 event t at 2.28447413445'
p81
aS'trial 0 phase 2 started at 7.27768397331'
p82
aS'trial 0 phase 3 started at 8.29291796684'
p83
aS'stimulus draw for phase 0.000010, at 8.342057'
p84
aS'trial 0 phase 4 started at 11.3084049225'
p85
aa(lp86
S'trial 1 started at 11.3966960907'
p87
aS'trial 1 phase 1 started at 11.3967039585'
p88
aS'trial 1 phase 2 started at 11.3967089653'
p89
aS'trial 1 phase 3 started at 12.3969600201'
p90
aS'stimulus draw for phase 0.000010, at 12.443220'
p91
aS'trial 1 phase 4 started at 15.4207749367'
p92
aa(lp93
S'trial 2 started at 15.4988601208'
p94
aS'trial 2 phase 1 started at 15.4988679886'
p95
aS'trial 2 phase 2 started at 15.4988720417'
p96
aS'trial 2 phase 3 started at 16.5145800114'
p97
aS'stimulus draw for phase 0.000010, at 16.561460'
p98
aS'trial 2 phase 4 started at 19.5160329342'
p99
aa(lp100
S'trial 3 started at 19.5985100269'
p101
aS'trial 3 phase 1 started at 19.5985190868'
p102
aS'trial 3 phase 2 started at 19.5985240936'
p103
aS'trial 3 phase 3 started at 20.5998909473'
p104
aS'stimulus draw for phase 0.000010, at 20.648853'
p105
aS'trial 3 phase 4 started at 23.6138191223'
p106
aa(lp107
S'trial 4 started at 23.702299118'
p108
aS'trial 4 phase 1 started at 23.7023069859'
p109
aS'trial 4 phase 2 started at 23.7023119926'
p110
aS'trial 4 phase 3 started at 24.7185380459'
p111
aS'stimulus draw for phase 0.000010, at 24.765628'
p112
aS'trial 4 phase 4 started at 27.7389550209'
p113
aa(lp114
S'trial 5 started at 27.825674057'
p115
aS'trial 5 phase 1 started at 27.8256819248'
p116
aS'trial 5 phase 2 started at 27.8256869316'
p117
aS'trial 5 phase 3 started at 28.8375570774'
p118
aS'stimulus draw for phase 0.000009, at 28.888104'
p119
a(lp120
I-99
aF3.34751296043396
aaS'trial 5 event escape at 31.173222065'
p121
aas.