(dp0
S'parameterArray'
p1
(lp2
(dp3
S'num_elements'
p4
I2000
sS'baseline_color_for_task'
p5
F0.75
sS'task'
p6
S'no_color_no_speed'
p7
sS'orientation'
p8
cnumpy.core.multiarray
scalar
p9
(cnumpy
dtype
p10
(S'f8'
p11
I0
I1
tp12
Rp13
(I3
S'<'
p14
NNNI-1
I-1
I0
tp15
bS'^8U)zj\x0f@'
p16
tp17
Rp18
sS'element_size'
p19
F45.0
sS'task_index'
p20
g9
(g10
(S'i8'
p21
I0
I1
tp22
Rp23
(I3
S'<'
p24
NNNI-1
I-1
I0
tp25
bS'\x00\x00\x00\x00\x00\x00\x00\x00'
p26
tp27
Rp28
sS'period'
p29
F36.0
sS'mapper_period'
p30
F3.0
sS'bar_width_ratio'
p31
F0.1
sS'baseline_speed_for_task'
p32
F5.0
sS'element_spatial_frequency'
p33
F2.0
sS'stim_size'
p34
F0.66667
sS'task_rate'
p35
F1.0
sS'refresh_frequency'
p36
F2.0
sasS'eventArray'
p37
(lp38
(lp39
S'trial 0 started at 2.10947322845'
p40
a(lp41
I99
aF0.8623387813568115
aaS'trial 0 phase 1 started at 2.97181820869'
p42
aS'trial 0 event t at 2.97183918953'
p43
aS'fix signal 1 at 3.610562 '
p44
aS'fix signal 1 at 6.112039 '
p45
a(lp46
I-99
aF5.0554609298706055
aaS'trial 0 event escape at 7.16496610641'
p47
aas.