(dp0
S'parameterArray'
p1
(lp2
(dp3
S'num_elements'
p4
I2000
sS'baseline_color_for_task'
p5
F0.75
sS'task'
p6
S'fix_no_stim'
p7
sS'orientation'
p8
F0.0
sS'element_size'
p9
F45.0
sS'task_index'
p10
cnumpy.core.multiarray
scalar
p11
(cnumpy
dtype
p12
(S'i8'
p13
I0
I1
tp14
Rp15
(I3
S'<'
p16
NNNI-1
I-1
I0
tp17
bS'\x04\x00\x00\x00\x00\x00\x00\x00'
p18
tp19
Rp20
sS'period'
p21
F36.0
sS'task_rate'
p22
F1.0
sS'mapper_period'
p23
F3.0
sS'bar_width_ratio'
p24
F0.1
sS'baseline_speed_for_task'
p25
F5.0
sS'refresh_frequency'
p26
F2.0
sS'stim_size'
p27
F0.66667
sS'stimulus_repetitions'
p28
I10
sS'element_spatial_frequency'
p29
F2.0
sa(dp30
g4
I2000
sg5
F0.75
sg6
S'no_color_no_speed'
p31
sg8
F0.0
sg9
F45.0
sg10
g11
(g15
S'\x00\x00\x00\x00\x00\x00\x00\x00'
p32
tp33
Rp34
sg21
F36.0
sg22
F1.0
sg23
F3.0
sg24
F0.1
sg25
F5.0
sg26
F2.0
sg27
F0.66667
sg28
I10
sg29
F2.0
sa(dp35
g4
I2000
sg5
F0.75
sg6
S'yes_color_yes_speed'
p36
sg8
F0.0
sg9
F45.0
sg10
g11
(g15
S'\x03\x00\x00\x00\x00\x00\x00\x00'
p37
tp38
Rp39
sg21
F36.0
sg22
F1.0
sg23
F3.0
sg24
F0.1
sg25
F5.0
sg26
F2.0
sg27
F0.66667
sg28
I10
sg29
F2.0
sa(dp40
g4
I2000
sg5
F0.75
sg6
g36
sg8
F0.0
sg9
F45.0
sg10
g11
(g15
S'\x03\x00\x00\x00\x00\x00\x00\x00'
p41
tp42
Rp43
sg21
F36.0
sg22
F1.0
sg23
F3.0
sg24
F0.1
sg25
F5.0
sg26
F2.0
sg27
F0.66667
sg28
I10
sg29
F2.0
sa(dp44
g4
I2000
sg5
F0.75
sg6
g7
sg8
F0.0
sg9
F45.0
sg10
g11
(g15
S'\x04\x00\x00\x00\x00\x00\x00\x00'
p45
tp46
Rp47
sg21
F36.0
sg22
F1.0
sg23
F3.0
sg24
F0.1
sg25
F5.0
sg26
F2.0
sg27
F0.66667
sg28
I10
sg29
F2.0
sasS'eventArray'
p48
(lp49
(lp50
S'trial 0 started at 2.2105178833'
p51
a(lp52
I99
aF0.5921330451965332
aaS'trial 0 phase 1 started at 2.8026599884'
p53
aS'trial 0 event t at 2.80267381668'
p54
aS'fix signal 1 at 4.025819 '
p55
aS'fix signal 1 at 6.208751 '
p56
aS'staircase updated from 0.175008 after response 1 at 7.580009'
p57
aS'trial 0 key: m at time: 7.58003687859'
p58
aS'trial 0 event m at 7.58004379272'
p59
aS'trial 0 phase 2 started at 7.79339385033'
p60
aS'trial 0 key: m at time: 7.82846999168'
p61
aS'trial 0 event m at 7.82848191261'
p62
aS'trial 0 key: z at time: 7.99499297142'
p63
aS'trial 0 event z at 7.99500393867'
p64
aS'trial 0 key: z at time: 8.16252398491'
p65
aS'trial 0 event z at 8.16253685951'
p66
aS'trial 0 phase 3 started at 8.79440593719'
p67
aS'stimulus draw for phase 0.000010, at 8.842678'
p68
aS'fix signal 1 at 9.428927 '
p69
aS'staircase updated from 0.172989 after response 1 at 9.931652'
p70
aS'trial 0 key: m at time: 9.93168401718'
p71
aS'trial 0 event m at 9.93169188499'
p72
aS'trial 0 phase 4 started at 11.7952728271'
p73
aa(lp74
S'trial 1 started at 11.8787689209'
p75
aS'trial 1 phase 1 started at 11.8787767887'
p76
aS'trial 1 phase 2 started at 11.8787817955'
p77
aS'trial 1 phase 3 started at 12.8790128231'
p78
aS'stimulus draw for phase 0.000009, at 12.924034'
p79
aS'fix signal 1 at 13.750443 '
p80
aS'staircase updated from 0.170820 after response 1 at 14.385758'
p81
aS'trial 1 key: m at time: 14.3857908249'
p82
aS'trial 1 event m at 14.3857998848'
p83
aS'trial 1 phase 4 started at 15.9165589809'
p84
aS'fix signal -1 at 15.917223 '
p85
aa(lp86
S'trial 2 started at 15.9995558262'
p87
aS'trial 2 phase 1 started at 15.9995658398'
p88
aS'trial 2 phase 2 started at 15.9995708466'
p89
aS'trial 2 phase 3 started at 17.0143477917'
p90
aS'stimulus draw for phase 0.000009, at 17.060303'
p91
aS'fix signal 1 at 17.844673 '
p92
aS'staircase updated from 0.168746 after response 1 at 18.525167'
p93
aS'trial 2 key: m at time: 18.5251998901'
p94
aS'trial 2 event m at 18.5252099037'
p95
aS'trial 2 phase 4 started at 20.0201950073'
p96
aS'fix signal -1 at 20.020854 '
p97
aa(lp98
S'trial 3 started at 20.1002898216'
p99
aS'trial 3 phase 1 started at 20.1002988815'
p100
aS'trial 3 phase 2 started at 20.1003029346'
p101
aS'trial 3 phase 3 started at 21.1149508953'
p102
aS'stimulus draw for phase 0.000009, at 21.160538'
p103
aS'fix signal -1 at 21.965162 '
p104
aS'trial 3 phase 4 started at 24.1183350086'
p105
aS'fix signal -1 at 24.118995 '
p106
aa(lp107
S'trial 4 started at 24.2063360214'
p108
aS'trial 4 phase 1 started at 24.2063448429'
p109
aS'trial 4 phase 2 started at 24.2063498497'
p110
a(lp111
I-99
aF0.5807077884674072
aaS'trial 4 event escape at 24.7870769501'
p112
aas.