(dp0
S'parameterArray'
p1
(lp2
(dp3
S'num_elements'
p4
cnumpy.core.multiarray
scalar
p5
(cnumpy
dtype
p6
(S'f8'
p7
I0
I1
tp8
Rp9
(I3
S'<'
p10
NNNI-1
I-1
I0
tp11
bS'\x00\x00\x00\x00\x00@\x9f@'
p12
tp13
Rp14
sS'orientation'
p15
g5
(g9
S'\x18-DT\xfb!\xe9?'
p16
tp17
Rp18
sS'element_size'
p19
F45.0
sS'task_index'
p20
g5
(g6
(S'i8'
p21
I0
I1
tp22
Rp23
(I3
S'<'
p24
NNNI-1
I-1
I0
tp25
bS'\x00\x00\x00\x00\x00\x00\x00\x00'
p26
tp27
Rp28
sS'period'
p29
F36.0
sS'baseline_color_for_task'
p30
F0.75
sS'bar_width_ratio'
p31
F0.125
sS'baseline_speed_for_task'
p32
F5.0
sS'unique_task'
p33
I0
sS'refresh_frequency'
p34
F2.0
sS'stim_size'
p35
F0.66667
sS'task_rate'
p36
F3.0
sS'element_spatial_frequency'
p37
F2.0
sasS'eventArray'
p38
(lp39
(lp40
S'trial 0 started at 2.3044500351'
p41
a(lp42
I99
aF0.5600900650024414
aaS'trial 0 phase 1 started at 2.86455011368'
p43
aS'trial 0 key: t at time: 2.86456108093'
p44
aS'trial 0 event t at 2.86456894875'
p45
aS'trial 0 phase 2 started at 7.85451292992'
p46
aS'trial 0 phase 3 started at 10.8548800945'
p47
aS'stimulus draw for phase 0.000001, at 10.867072'
p48
aS'stimulus draw for phase 0.014351, at 11.382191'
p49
aS'stimulus draw for phase 0.028274, at 11.883306'
p50
aS'signal in feature: Speed ecc bin: 3 phase: 0.042 value: -0.372854 at 12.373982 '
p51
aS'stimulus draw for phase 0.042176, at 12.385314'
p52
aS'stimulus draw for phase 0.055587, at 12.867949'
p53
aS'stimulus draw for phase 0.069475, at 13.366749'
p54
aS'stimulus draw for phase 0.083349, at 13.865923'
p55
aS'stimulus draw for phase 0.097728, at 14.384579'
p56
aS'signal in feature: Fix ecc bin: 3 phase: 0.111 value: 0.068528 at 14.856662 '
p57
aS'stimulus draw for phase 0.111142, at 14.867381'
p58
aS'signal in feature: Speed ecc bin: 2 phase: 0.125 value: -0.221942 at 15.356939 '
p59
aS'stimulus draw for phase 0.125039, at 15.366821'
p60
aS'stimulus draw for phase 0.138956, at 15.868455'
p61
aS'stimulus draw for phase 0.152809, at 16.367833'
p62
aS'stimulus draw for phase 0.166749, at 16.868728'
p63
aS'stimulus draw for phase 0.180609, at 17.368090'
p64
aS'signal in feature: Speed ecc bin: 2 phase: 0.194 value: -0.221942 at 17.856957 '
p65
aS'signal in feature: Fix ecc bin: 2 phase: 0.194 value: -0.149287 at 17.857134 '
p66
aS'stimulus draw for phase 0.194486, at 17.867203'
p67
aS'stimulus draw for phase 0.208449, at 18.369378'
p68
aS'stimulus draw for phase 0.222314, at 18.868684'
p69
aS'stimulus draw for phase 0.236175, at 19.368711'
p70
aS'signal in feature: Color ecc bin: 1 phase: 0.250 value: 0.262512 at 19.859261 '
p71
aS'stimulus draw for phase 0.250088, at 19.872632'
p72
aS'stimulus draw for phase 0.264004, at 20.370903'
p73
aS'stimulus draw for phase 0.277897, at 20.869648'
p74
aS'signal in feature: Speed ecc bin: 1 phase: 0.292 value: 0.952626 at 21.360192 '
p75
aS'signal in feature: Fix ecc bin: 1 phase: 0.292 value: -0.173394 at 21.360377 '
p76
aS'stimulus draw for phase 0.291795, at 21.370246'
p77
aS'stimulus draw for phase 0.305711, at 21.871656'
p78
aS'signal in feature: Color ecc bin: 1 phase: 0.320 value: -0.262512 at 22.359688 '
p79
aS'stimulus draw for phase 0.319562, at 22.374211'
p80
aS'stimulus draw for phase 0.333469, at 22.871445'
p81
aS'stimulus draw for phase 0.347362, at 23.370372'
p82
aS'signal in feature: Fix ecc bin: 1 phase: 0.361 value: 0.173394 at 23.859701 '
p83
aS'stimulus draw for phase 0.361226, at 23.869852'
p84
aS'stimulus draw for phase 0.375153, at 24.370950'
p85
aS'stimulus draw for phase 0.389044, at 24.871736'
p86
aS'signal in feature: Speed ecc bin: 0 phase: 0.403 value: 2.093932 at 25.361393 '
p87
aS'stimulus draw for phase 0.402940, at 25.371313'
p88
aS'stimulus draw for phase 0.416869, at 25.874414'
p89
aS'stimulus draw for phase 0.430731, at 26.371686'
p90
aS'stimulus draw for phase 0.444629, at 26.873363'
p91
aS'signal in feature: Color ecc bin: 0 phase: 0.459 value: 0.115083 at 27.363027 '
p92
aS'signal in feature: Fix ecc bin: 0 phase: 0.459 value: -0.111557 at 27.367080 '
p93
aS'stimulus draw for phase 0.458528, at 27.376869'
p94
aS'trial 0 key: lcommand at time: 27.463103056'
p95
aS'trial 0 event lcommand at 27.4631140232'
p96
aS'trial 0 key: lshift at time: 27.5459330082'
p97
aS'trial 0 event lshift at 27.5459439754'
p98
aS'stimulus draw for phase 0.472441, at 27.874705'
p99
aS'signal in feature: Speed ecc bin: 0 phase: 0.486 value: -2.093932 at 28.362990 '
p100
aS'stimulus draw for phase 0.486320, at 28.373029'
p101
aS'stimulus draw for phase 0.500237, at 28.874138'
p102
aS'stimulus draw for phase 0.514662, at 29.393086'
p103
aS'signal in feature: Fix ecc bin: 0 phase: 0.528 value: 0.111557 at 29.864167 '
p104
aS'stimulus draw for phase 0.528019, at 29.874158'
p105
aS'signal in feature: Color ecc bin: 0 phase: 0.542 value: 0.115083 at 30.365534 '
p106
aS'stimulus draw for phase 0.541945, at 30.378804'
p107
aS'stimulus draw for phase 0.555842, at 30.876468'
p108
aS'stimulus draw for phase 0.569697, at 31.375863'
p109
aS'stimulus draw for phase 0.583604, at 31.874710'
p110
aS'signal in feature: Color ecc bin: 0 phase: 0.598 value: -0.115083 at 32.365891 '
p111
aS'stimulus draw for phase 0.597516, at 32.377380'
p112
aS'signal in feature: Speed ecc bin: 0 phase: 0.611 value: -2.093932 at 32.866240 '
p113
aS'stimulus draw for phase 0.611408, at 32.876449'
p114
aS'signal in feature: Fix ecc bin: 1 phase: 0.625 value: -0.173394 at 33.366807 '
p115
aS'stimulus draw for phase 0.625313, at 33.376986'
p116
aS'stimulus draw for phase 0.639149, at 33.875674'
p117
aS'stimulus draw for phase 0.653064, at 34.377438'
p118
aS'trial 0 key: lcommand at time: 34.6157701015'
p119
aS'trial 0 event lcommand at 34.6157810688'
p120
aS'trial 0 key: w at time: 34.731577158'
p121
aS'trial 0 event w at 34.7315881252'
p122
aS'stimulus draw for phase 0.666917, at 34.875764'
p123
aS'signal in feature: Fix ecc bin: 1 phase: 0.681 value: -0.173394 at 35.365502 '
p124
aS'stimulus draw for phase 0.680832, at 35.375662'
p125
aS'trial 0 key: lctrl at time: 35.8013091087'
p126
aS'trial 0 event lctrl at 35.801320076'
p127
aS'trial 0 key: c at time: 35.8506860733'
p128
aS'trial 0 event c at 35.8506970406'
p129
aS'stimulus draw for phase 0.694699, at 35.874091'
p130
aS'stimulus draw for phase 0.708645, at 36.377256'
p131
aS'stimulus draw for phase 0.722510, at 36.876606'
p132
aS'trial 0 key: lcommand at time: 37.0159850121'
p133
aS'trial 0 event lcommand at 37.0159959793'
p134
a(lp135
I-99
aF34.79613995552063
aaS'trial 0 key: q at time: 37.100618124'
p136
aS'trial 0 event q at 37.1006269455'
p137
aas.