(dp0
S'parameterArray'
p1
(lp2
(dp3
S'num_elements'
p4
I2000
sS'baseline_color_for_task'
p5
F0.75
sS'task'
p6
S'yes_color_no_speed'
p7
sS'orientation'
p8
cnumpy.core.multiarray
scalar
p9
(cnumpy
dtype
p10
(S'f8'
p11
I0
I1
tp12
Rp13
(I3
S'<'
p14
NNNI-1
I-1
I0
tp15
bS'\x18-DT\xfb!\xf9?'
p16
tp17
Rp18
sS'element_size'
p19
F45.0
sS'task_index'
p20
g9
(g10
(S'i8'
p21
I0
I1
tp22
Rp23
(I3
S'<'
p24
NNNI-1
I-1
I0
tp25
bS'\x01\x00\x00\x00\x00\x00\x00\x00'
p26
tp27
Rp28
sS'period'
p29
F36.0
sS'mapper_period'
p30
F3.0
sS'bar_width_ratio'
p31
F0.1
sS'refresh_frequency_mapper'
p32
F0.3333333333333333
sS'baseline_speed_for_task'
p33
F5.0
sS'element_spatial_frequency'
p34
F2.0
sS'stim_size'
p35
F0.66667
sS'task_rate'
p36
F1.0
sS'refresh_frequency'
p37
F2.0
sa(dp38
g4
I2000
sg5
F0.75
sg6
g7
sg8
g9
(g13
S'\x00\x00\x00\x00\x00\x00\x00\x00'
p39
tp40
Rp41
sg19
F45.0
sg20
g9
(g23
S'\x01\x00\x00\x00\x00\x00\x00\x00'
p42
tp43
Rp44
sg29
F36.0
sg30
F3.0
sg31
F0.1
sg32
F0.3333333333333333
sg33
F5.0
sg34
F2.0
sg35
F0.66667
sg36
F1.0
sg37
F2.0
sa(dp45
g4
I2000
sg5
F0.75
sg6
g7
sg8
g9
(g13
S'^8U)zj\x0f@'
p46
tp47
Rp48
sg19
F45.0
sg20
g9
(g23
S'\x01\x00\x00\x00\x00\x00\x00\x00'
p49
tp50
Rp51
sg29
F36.0
sg30
F3.0
sg31
F0.1
sg32
F0.3333333333333333
sg33
F5.0
sg34
F2.0
sg35
F0.66667
sg36
F1.0
sg37
F2.0
sa(dp52
g4
I2000
sg5
F0.75
sg6
S'fix_no_stim'
p53
sg8
g9
(g13
S'\x18-DT\xfb!\t@'
p54
tp55
Rp56
sg19
F45.0
sg20
g9
(g23
S'\x04\x00\x00\x00\x00\x00\x00\x00'
p57
tp58
Rp59
sg29
F36.0
sg30
F3.0
sg31
F0.1
sg32
F0.3333333333333333
sg33
F5.0
sg34
F2.0
sg35
F0.66667
sg36
F1.0
sg37
F2.0
sa(dp60
g4
I2000
sg5
F0.75
sg6
g53
sg8
g9
(g13
S'\x00\x00\x00\x00\x00\x00\x00\x00'
p61
tp62
Rp63
sg19
F45.0
sg20
g9
(g23
S'\x04\x00\x00\x00\x00\x00\x00\x00'
p64
tp65
Rp66
sg29
F36.0
sg30
F3.0
sg31
F0.1
sg32
F0.3333333333333333
sg33
F5.0
sg34
F2.0
sg35
F0.66667
sg36
F1.0
sg37
F2.0
sa(dp67
g4
I2000
sg5
F0.75
sg6
S'no_color_yes_speed'
p68
sg8
g9
(g13
S'u\xa7\xbb\xe9\xbb\xfd\x15@'
p69
tp70
Rp71
sg19
F45.0
sg20
g9
(g23
S'\x02\x00\x00\x00\x00\x00\x00\x00'
p72
tp73
Rp74
sg29
F36.0
sg30
F3.0
sg31
F0.1
sg32
F0.3333333333333333
sg33
F5.0
sg34
F2.0
sg35
F0.66667
sg36
F1.0
sg37
F2.0
sasS'eventArray'
p75
(lp76
(lp77
S'trial 0 started at 2.26572203636'
p78
a(lp79
I99
aF1.7473270893096924
aaS'trial 0 phase 1 started at 4.01305413246'
p80
aS'trial 0 event t at 4.01307201385'
p81
aS'trial 0 phase 2 started at 9.00345301628'
p82
aS'trial 0 phase 3 started at 10.0197870731'
p83
aS'trial 0 phase 4 started at 13.0495021343'
p84
aa(lp85
S'trial 1 started at 13.1413280964'
p86
aS'trial 1 phase 1 started at 13.1413359642'
p87
aS'trial 1 phase 2 started at 13.141340971'
p88
aS'trial 1 phase 3 started at 14.155600071'
p89
aS'trial 1 phase 4 started at 17.1870491505'
p90
aa(lp91
S'trial 2 started at 17.2907691002'
p92
aS'trial 2 phase 1 started at 17.2907810211'
p93
aS'trial 2 phase 2 started at 17.2907881737'
p94
aS'trial 2 phase 3 started at 18.306812048'
p95
aS'trial 2 phase 4 started at 21.3544809818'
p96
aa(lp97
S'trial 3 started at 21.4424569607'
p98
aS'trial 3 phase 1 started at 21.4424650669'
p99
aS'trial 3 phase 2 started at 21.4424700737'
p100
aS'trial 3 phase 3 started at 22.4589250088'
p101
aS'trial 3 phase 4 started at 25.4601869583'
p102
aa(lp103
S'trial 4 started at 25.5453460217'
p104
aS'trial 4 phase 1 started at 25.5453541279'
p105
aS'trial 4 phase 2 started at 25.545358181'
p106
aS'trial 4 phase 3 started at 26.5605061054'
p107
aS'trial 4 phase 4 started at 29.5608360767'
p108
aa(lp109
S'trial 5 started at 29.6488640308'
p110
aS'trial 5 phase 1 started at 29.6488721371'
p111
aS'trial 5 phase 2 started at 29.6488771439'
p112
aS'trial 5 phase 3 started at 30.6625521183'
p113
a(lp114
I-99
aF3.5711560249328613
aaS'trial 5 event q at 33.220056057'
p115
aas.