(dp0
S'parameterArray'
p1
(lp2
(dp3
S'num_elements'
p4
cnumpy.core.multiarray
scalar
p5
(cnumpy
dtype
p6
(S'f8'
p7
I0
I1
tp8
Rp9
(I3
S'<'
p10
NNNI-1
I-1
I0
tp11
bS'\x00\x00\x00\x00\x00@\x9f@'
p12
tp13
Rp14
sS'baseline_color_for_task'
p15
F0.75
sS'orientation'
p16
g5
(g9
S'\x18-DT\xfb!\xe9?'
p17
tp18
Rp19
sS'element_size'
p20
F45.0
sS'task_index'
p21
g5
(g6
(S'i8'
p22
I0
I1
tp23
Rp24
(I3
S'<'
p25
NNNI-1
I-1
I0
tp26
bS'\x00\x00\x00\x00\x00\x00\x00\x00'
p27
tp28
Rp29
sS'period'
p30
F36.0
sS'mapper_period'
p31
F3.0
sS'bar_width_ratio'
p32
F0.1
sS'refresh_frequency_mapper'
p33
F0.3333333333333333
sS'baseline_speed_for_task'
p34
F5.0
sS'unique_task'
p35
I0
sS'element_spatial_frequency'
p36
F2.0
sS'stim_size'
p37
F0.66667
sS'task_rate'
p38
F1.0
sS'refresh_frequency'
p39
F2.0
sa(dp40
g4
g5
(g9
S'\x00\x00\x00\x00\x00@\x9f@'
p41
tp42
Rp43
sg15
F0.75
sg16
g5
(g9
S'u\xa7\xbb\xe9\xbb\xfd\x15@'
p44
tp45
Rp46
sg20
F45.0
sg21
g5
(g24
S'\x04\x00\x00\x00\x00\x00\x00\x00'
p47
tp48
Rp49
sg30
F36.0
sg31
F3.0
sg32
F0.1
sg33
F0.3333333333333333
sg34
F5.0
sg35
I2
sg36
F2.0
sg37
F0.66667
sg38
F1.0
sg39
F2.0
sasS'eventArray'
p50
(lp51
(lp52
S'trial 0 started at 2.26430702209'
p53
a(lp54
I99
aF1.1262879371643066
aaS'trial 0 phase 1 started at 3.3906018734'
p55
aS'trial 0 key: t at time: 3.3906109333'
p56
aS'trial 0 event t at 3.39061594009'
p57
aS'trial 0 phase 2 started at 8.38050603867'
p58
aS'trial 0 phase 3 started at 11.3815250397'
p59
aS'stimulus draw for phase 0.000001, at 11.391936'
p60
aS'stimulus draw for phase 0.014323, at 11.907635'
p61
aS'stimulus draw for phase 0.028243, at 12.408467'
p62
aS'stimulus draw for phase 0.042146, at 12.908891'
p63
aS'signal in feature: Speed ecc bin: 3 phase: 0.056 value: 0.372854 at 13.399072 '
p64
aS'stimulus draw for phase 0.056017, at 13.408617'
p65
aS'signal in feature: Fix ecc bin: 3 phase: 0.069 value: 0.068528 at 13.883125 '
p66
aS'stimulus draw for phase 0.069469, at 13.892821'
p67
aS'stimulus draw for phase 0.083363, at 14.392775'
p68
aS'stimulus draw for phase 0.097263, at 14.893149'
p69
aS'stimulus draw for phase 0.111585, at 15.408822'
p70
aS'signal in feature: Color ecc bin: 2 phase: 0.125 value: -0.093431 at 15.884222 '
p71
aS'stimulus draw for phase 0.125056, at 15.897229'
p72
aS'signal in feature: Speed ecc bin: 2 phase: 0.139 value: -0.221942 at 16.383311 '
p73
aS'signal in feature: Fix ecc bin: 2 phase: 0.139 value: -0.149287 at 16.383488 '
p74
aS'stimulus draw for phase 0.138920, at 16.393066'
p75
aS'stimulus draw for phase 0.152818, at 16.893348'
p76
aS'stimulus draw for phase 0.166709, at 17.393220'
p77
aS'stimulus draw for phase 0.180610, at 17.893645'
p78
aS'stimulus draw for phase 0.194529, at 18.394762'
p79
aS'signal in feature: Color ecc bin: 2 phase: 0.208 value: -0.093431 at 18.884876 '
p80
aS'signal in feature: Speed ecc bin: 2 phase: 0.208 value: 0.221942 at 18.888920 '
p81
aS'signal in feature: Fix ecc bin: 2 phase: 0.208 value: -0.149287 at 18.889072 '
p82
aS'stimulus draw for phase 0.208409, at 18.898018'
p83
aS'stimulus draw for phase 0.222331, at 19.395747'
p84
aS'stimulus draw for phase 0.236173, at 19.893689'
p85
aS'stimulus draw for phase 0.250065, at 20.394161'
p86
aS'signal in feature: Fix ecc bin: 1 phase: 0.264 value: -0.173394 at 20.886028 '
p87
aS'stimulus draw for phase 0.263994, at 20.895777'
p88
aS'stimulus draw for phase 0.277890, at 21.395913'
p89
aS'stimulus draw for phase 0.291758, at 21.894990'
p90
aS'signal in feature: Color ecc bin: 1 phase: 0.306 value: 0.262512 at 22.384998 '
p91
aS'stimulus draw for phase 0.305637, at 22.397648'
p92
aS'signal in feature: Fix ecc bin: 1 phase: 0.320 value: -0.173394 at 22.886314 '
p93
aS'stimulus draw for phase 0.319559, at 22.896041'
p94
aS'signal in feature: Speed ecc bin: 1 phase: 0.333 value: -0.952626 at 23.386914 '
p95
aS'stimulus draw for phase 0.333467, at 23.396564'
p96
aS'stimulus draw for phase 0.347380, at 23.897429'
p97
aS'stimulus draw for phase 0.361262, at 24.397182'
p98
aS'signal in feature: Color ecc bin: 0 phase: 0.375 value: -0.115083 at 24.887669 '
p99
aS'stimulus draw for phase 0.375154, at 24.900448'
p100
aS'stimulus draw for phase 0.389033, at 25.397040'
p101
aS'stimulus draw for phase 0.402939, at 25.897644'
p102
aS'signal in feature: Fix ecc bin: 0 phase: 0.417 value: -0.111557 at 26.387896 '
p103
aS'stimulus draw for phase 0.416825, at 26.397528'
p104
aS'signal in feature: Speed ecc bin: 0 phase: 0.431 value: 2.093932 at 26.888226 '
p105
aS'stimulus draw for phase 0.430724, at 26.897979'
p106
aS'stimulus draw for phase 0.444633, at 27.398486'
p107
aS'signal in feature: Color ecc bin: 0 phase: 0.458 value: -0.115083 at 27.888052 '
p108
aS'stimulus draw for phase 0.458497, at 27.901173'
p109
aS'stimulus draw for phase 0.472424, at 28.399376'
p110
aS'stimulus draw for phase 0.486321, at 28.899186'
p111
aS'stimulus draw for phase 0.500240, at 29.400297'
p112
aS'stimulus draw for phase 0.514094, at 29.899424'
p113
aS'signal in feature: Fix ecc bin: 0 phase: 0.528 value: -0.111557 at 30.388978 '
p114
aS'stimulus draw for phase 0.527965, at 30.398565'
p115
aS'stimulus draw for phase 0.541872, at 30.899954'
p116
aS'stimulus draw for phase 0.555792, at 31.400223'
p117
aS'signal in feature: Color ecc bin: 0 phase: 0.570 value: -0.115083 at 31.890339 '
p118
aS'stimulus draw for phase 0.569671, at 31.903114'
p119
aS'signal in feature: Fix ecc bin: 0 phase: 0.584 value: -0.111557 at 32.390746 '
p120
aS'stimulus draw for phase 0.583571, at 32.400509'
p121
aS'signal in feature: Speed ecc bin: 0 phase: 0.597 value: -2.093932 at 32.890963 '
p122
aS'stimulus draw for phase 0.597468, at 32.900626'
p123
aS'stimulus draw for phase 0.611365, at 33.400875'
p124
aS'stimulus draw for phase 0.625258, at 33.900989'
p125
aS'signal in feature: Color ecc bin: 1 phase: 0.639 value: 0.262512 at 34.392074 '
p126
aS'stimulus draw for phase 0.639165, at 34.404714'
p127
aS'signal in feature: Speed ecc bin: 1 phase: 0.653 value: -0.952626 at 34.892311 '
p128
aS'signal in feature: Fix ecc bin: 1 phase: 0.653 value: 0.173394 at 34.892492 '
p129
aS'stimulus draw for phase 0.653061, at 34.902096'
p130
aS'stimulus draw for phase 0.666918, at 35.400856'
p131
aS'stimulus draw for phase 0.680832, at 35.901617'
p132
aS'stimulus draw for phase 0.694723, at 36.401546'
p133
aS'signal in feature: Speed ecc bin: 1 phase: 0.709 value: 0.952626 at 36.892686 '
p134
aS'stimulus draw for phase 0.708626, at 36.902330'
p135
aS'stimulus draw for phase 0.722482, at 37.401611'
p136
aS'signal in feature: Color ecc bin: 1 phase: 0.736 value: -0.262512 at 37.894285 '
p137
aS'stimulus draw for phase 0.736447, at 37.907178'
p138
aS'signal in feature: Fix ecc bin: 2 phase: 0.750 value: 0.149287 at 38.394412 '
p139
aS'stimulus draw for phase 0.750338, at 38.403997'
p140
aS'stimulus draw for phase 0.764217, at 38.903536'
p141
aS'signal in feature: Speed ecc bin: 2 phase: 0.778 value: 0.221942 at 39.393122 '
p142
aS'stimulus draw for phase 0.778084, at 39.403324'
p143
aS'stimulus draw for phase 0.792027, at 39.904579'
p144
aS'signal in feature: Fix ecc bin: 2 phase: 0.806 value: -0.149287 at 40.394428 '
p145
aS'stimulus draw for phase 0.805894, at 40.404278'
p146
aS'stimulus draw for phase 0.819819, at 40.905437'
p147
aS'stimulus draw for phase 0.833680, at 41.404203'
p148
aS'signal in feature: Color ecc bin: 2 phase: 0.848 value: 0.093431 at 41.894767 '
p149
aS'signal in feature: Speed ecc bin: 2 phase: 0.848 value: -0.221942 at 41.898798 '
p150
aS'stimulus draw for phase 0.847574, at 41.907554'
p151
aS'stimulus draw for phase 0.861474, at 42.404951'
p152
aS'stimulus draw for phase 0.875386, at 42.905537'
p153
aS'stimulus draw for phase 0.889291, at 43.406243'
p154
aS'signal in feature: Fix ecc bin: 3 phase: 0.903 value: -0.068528 at 43.896349 '
p155
aS'stimulus draw for phase 0.903171, at 43.905967'
p156
aS'signal in feature: Color ecc bin: 3 phase: 0.917 value: -0.073340 at 44.396794 '
p157
aS'stimulus draw for phase 0.917075, at 44.409571'
p158
aS'signal in feature: Speed ecc bin: 3 phase: 0.931 value: 0.372854 at 44.898531 '
p159
aS'stimulus draw for phase 0.931009, at 44.908200'
p160
aS'stimulus draw for phase 0.944812, at 45.404872'
p161
aS'stimulus draw for phase 0.958748, at 45.906646'
p162
aS'stimulus draw for phase 0.972630, at 46.406477'
p163
aS'stimulus draw for phase 0.986529, at 46.906710'
p164
aS'trial 0 phase 4 started at 47.3972899914'
p165
aa(lp166
S'trial 1 started at 47.4540250301'
p167
aS'trial 1 phase 1 started at 47.4540328979'
p168
aS'trial 1 phase 2 started at 47.4540379047'
p169
aS'trial 1 phase 3 started at 50.4648239613'
p170
aS'stimulus draw for phase 0.000001, at 50.475091'
p171
aS'stimulus draw for phase 0.013911, at 50.975838'
p172
aS'stimulus draw for phase 0.027797, at 51.475827'
p173
aS'stimulus draw for phase 0.041696, at 51.977036'
p174
aS'signal in feature: Color ecc bin: 3 phase: 0.056 value: -0.073340 at 52.466971 '
p175
aS'signal in feature: Fix ecc bin: 3 phase: 0.056 value: 0.068528 at 52.467186 '
p176
aS'stimulus draw for phase 0.055598, at 52.479625'
p177
aS'stimulus draw for phase 0.069496, at 52.977894'
p178
aS'stimulus draw for phase 0.083434, at 53.478730'
p179
aS'stimulus draw for phase 0.097280, at 53.977047'
p180
aS'signal in feature: Speed ecc bin: 3 phase: 0.111 value: -0.372854 at 54.467850 '
p181
aS'stimulus draw for phase 0.111177, at 54.477543'
p182
aS'stimulus draw for phase 0.125072, at 54.977600'
p183
aS'signal in feature: Fix ecc bin: 2 phase: 0.139 value: 0.149287 at 55.467905 '
p184
aS'stimulus draw for phase 0.138955, at 55.480574'
p185
aS'stimulus draw for phase 0.152838, at 55.977189'
p186
aS'signal in feature: Speed ecc bin: 2 phase: 0.167 value: -0.221942 at 56.468511 '
p187
aS'stimulus draw for phase 0.166751, at 56.478416'
p188
aS'stimulus draw for phase 0.180645, at 56.978199'
p189
aS'signal in feature: Color ecc bin: 2 phase: 0.195 value: 0.093431 at 57.469115 '
p190
aS'stimulus draw for phase 0.194545, at 57.479286'
p191
aS'stimulus draw for phase 0.208454, at 57.980784'
p192
aS'stimulus draw for phase 0.222327, at 58.478910'
p193
aS'stimulus draw for phase 0.236239, at 58.979689'
p194
aS'signal in feature: Speed ecc bin: 1 phase: 0.250 value: -0.952626 at 59.469919 '
p195
aS'stimulus draw for phase 0.250123, at 59.479699'
p196
aS'signal in feature: Color ecc bin: 1 phase: 0.264 value: 0.262512 at 59.971849 '
p197
aS'stimulus draw for phase 0.264066, at 59.981721'
p198
aS'signal in feature: Fix ecc bin: 1 phase: 0.278 value: -0.173394 at 60.469427 '
p199
aS'stimulus draw for phase 0.277886, at 60.481466'
p200
aS'stimulus draw for phase 0.291824, at 60.980839'
p201
aS'signal in feature: Speed ecc bin: 1 phase: 0.306 value: -0.952626 at 61.470622 '
p202
aS'stimulus draw for phase 0.305700, at 61.481153'
p203
aS'stimulus draw for phase 0.319594, at 61.980771'
p204
aS'signal in feature: Color ecc bin: 1 phase: 0.333 value: -0.262512 at 62.470323 '
p205
aS'signal in feature: Fix ecc bin: 1 phase: 0.333 value: 0.173394 at 62.470531 '
p206
aS'stimulus draw for phase 0.333469, at 62.482771'
p207
aS'stimulus draw for phase 0.347389, at 62.980986'
p208
aS'stimulus draw for phase 0.361315, at 63.482531'
p209
aS'stimulus draw for phase 0.375197, at 63.982550'
p210
aS'signal in feature: Speed ecc bin: 0 phase: 0.389 value: -2.093932 at 64.472803 '
p211
aS'stimulus draw for phase 0.389093, at 64.483814'
p212
aS'signal in feature: Color ecc bin: 0 phase: 0.403 value: -0.115083 at 64.973007 '
p213
aS'stimulus draw for phase 0.402989, at 64.982094'
p214
aS'signal in feature: Fix ecc bin: 0 phase: 0.417 value: -0.111557 at 65.471445 '
p215
aS'stimulus draw for phase 0.416832, at 65.483795'
p216
aS'stimulus draw for phase 0.430778, at 65.983293'
p217
aS'signal in feature: Speed ecc bin: 0 phase: 0.445 value: 2.093932 at 66.472690 '
p218
aS'stimulus draw for phase 0.444647, at 66.482474'
p219
aS'signal in feature: Color ecc bin: 0 phase: 0.459 value: 0.115083 at 66.973301 '
p220
aS'stimulus draw for phase 0.458551, at 66.983329'
p221
aS'stimulus draw for phase 0.472448, at 67.483233'
p222
aS'stimulus draw for phase 0.486341, at 67.983577'
p223
aS'signal in feature: Fix ecc bin: 0 phase: 0.500 value: -0.111557 at 68.473982 '
p224
aS'stimulus draw for phase 0.500236, at 68.485887'
p225
aS'stimulus draw for phase 0.514149, at 68.984413'
p226
aS'stimulus draw for phase 0.528046, at 69.484728'
p227
aS'signal in feature: Color ecc bin: 0 phase: 0.542 value: -0.115083 at 69.975921 '
p228
aS'stimulus draw for phase 0.541958, at 69.985956'
p229
aS'stimulus draw for phase 0.555814, at 70.484611'
p230
aS'stimulus draw for phase 0.569725, at 70.985390'
p231
aS'signal in feature: Speed ecc bin: 0 phase: 0.584 value: 2.093932 at 71.473625 '
p232
aS'signal in feature: Fix ecc bin: 0 phase: 0.584 value: 0.111557 at 71.473760 '
p233
aS'stimulus draw for phase 0.583569, at 71.485091'
p234
aS'signal in feature: Color ecc bin: 0 phase: 0.598 value: 0.115083 at 71.975670 '
p235
aS'stimulus draw for phase 0.597505, at 71.985493'
p236
aS'stimulus draw for phase 0.611393, at 72.485246'
p237
aS'stimulus draw for phase 0.625326, at 72.987046'
p238
aS'stimulus draw for phase 0.639208, at 73.486604'
p239
aS'signal in feature: Fix ecc bin: 1 phase: 0.653 value: 0.173394 at 73.978870 '
p240
aS'stimulus draw for phase 0.653136, at 73.991263'
p241
aS'signal in feature: Speed ecc bin: 1 phase: 0.667 value: -0.952626 at 74.477521 '
p242
aS'stimulus draw for phase 0.667000, at 74.487201'
p243
aS'stimulus draw for phase 0.680901, at 74.987493'
p244
aS'stimulus draw for phase 0.694755, at 75.486317'
p245
aS'signal in feature: Color ecc bin: 1 phase: 0.709 value: 0.262512 at 75.977164 '
p246
aS'stimulus draw for phase 0.708659, at 75.987430'
p247
aS'signal in feature: Speed ecc bin: 1 phase: 0.723 value: -0.952626 at 76.478050 '
p248
aS'stimulus draw for phase 0.722570, at 76.488170'
p249
aS'signal in feature: Fix ecc bin: 1 phase: 0.736 value: -0.173394 at 76.979195 '
p250
aS'stimulus draw for phase 0.736490, at 76.991808'
p251
aS'stimulus draw for phase 0.750358, at 77.487685'
p252
aS'signal in feature: Color ecc bin: 2 phase: 0.764 value: -0.093431 at 77.978096 '
p253
aS'stimulus draw for phase 0.764242, at 77.988128'
p254
aS'stimulus draw for phase 0.778157, at 78.489979'
p255
aS'signal in feature: Speed ecc bin: 2 phase: 0.792 value: 0.221942 at 78.979504 '
p256
aS'stimulus draw for phase 0.792057, at 78.989311'
p257
aS'signal in feature: Fix ecc bin: 2 phase: 0.806 value: -0.149287 at 79.480166 '
p258
aS'stimulus draw for phase 0.805962, at 79.491925'
p259
aS'stimulus draw for phase 0.819869, at 79.990437'
p260
aS'signal in feature: Color ecc bin: 2 phase: 0.834 value: 0.093431 at 80.478121 '
p261
aS'stimulus draw for phase 0.833685, at 80.488414'
p262
aS'signal in feature: Speed ecc bin: 2 phase: 0.848 value: -0.221942 at 80.980344 '
p263
aS'stimulus draw for phase 0.847635, at 80.989933'
p264
aS'stimulus draw for phase 0.861498, at 81.488890'
p265
aS'signal in feature: Fix ecc bin: 3 phase: 0.875 value: -0.068528 at 81.980867 '
p266
aS'stimulus draw for phase 0.875425, at 81.993612'
p267
aS'stimulus draw for phase 0.889319, at 82.490635'
p268
aS'stimulus draw for phase 0.903198, at 82.990297'
p269
aS'signal in feature: Color ecc bin: 3 phase: 0.917 value: 0.073340 at 83.481897 '
p270
aS'stimulus draw for phase 0.917123, at 83.491667'
p271
aS'stimulus draw for phase 0.931013, at 83.993192'
p272
aS'stimulus draw for phase 0.947711, at 84.592773'
p273
a(lp274
I-99
aF37.39827299118042
aaS'trial 1 key: q at time: 84.8523278236'
p275
aS'trial 1 event q at 84.8523378372'
p276
aas.