(dp0
S'parameterArray'
p1
(lp2
(dp3
S'num_elements'
p4
I2000
sS'baseline_color_for_task'
p5
F0.75
sS'task'
p6
S'fix_no_stim'
p7
sS'orientation'
p8
F0.0
sS'element_size'
p9
F45.0
sS'task_index'
p10
cnumpy.core.multiarray
scalar
p11
(cnumpy
dtype
p12
(S'i8'
p13
I0
I1
tp14
Rp15
(I3
S'<'
p16
NNNI-1
I-1
I0
tp17
bS'\x04\x00\x00\x00\x00\x00\x00\x00'
p18
tp19
Rp20
sS'period'
p21
F36.0
sS'task_rate'
p22
F1.0
sS'mapper_period'
p23
F3.0
sS'bar_width_ratio'
p24
F0.1
sS'baseline_speed_for_task'
p25
F5.0
sS'refresh_frequency'
p26
F2.0
sS'stim_size'
p27
F0.66667
sS'stimulus_repetitions'
p28
I10
sS'element_spatial_frequency'
p29
F2.0
sa(dp30
g4
I2000
sg5
F0.75
sg6
S'yes_color_yes_speed'
p31
sg8
F0.0
sg9
F45.0
sg10
g11
(g15
S'\x03\x00\x00\x00\x00\x00\x00\x00'
p32
tp33
Rp34
sg21
F36.0
sg22
F1.0
sg23
F3.0
sg24
F0.1
sg25
F5.0
sg26
F2.0
sg27
F0.66667
sg28
I10
sg29
F2.0
sa(dp35
g4
I2000
sg5
F0.75
sg6
S'yes_color_no_speed'
p36
sg8
F0.0
sg9
F45.0
sg10
g11
(g15
S'\x01\x00\x00\x00\x00\x00\x00\x00'
p37
tp38
Rp39
sg21
F36.0
sg22
F1.0
sg23
F3.0
sg24
F0.1
sg25
F5.0
sg26
F2.0
sg27
F0.66667
sg28
I10
sg29
F2.0
sa(dp40
g4
I2000
sg5
F0.75
sg6
g36
sg8
F0.0
sg9
F45.0
sg10
g11
(g15
S'\x01\x00\x00\x00\x00\x00\x00\x00'
p41
tp42
Rp43
sg21
F36.0
sg22
F1.0
sg23
F3.0
sg24
F0.1
sg25
F5.0
sg26
F2.0
sg27
F0.66667
sg28
I10
sg29
F2.0
sasS'eventArray'
p44
(lp45
(lp46
S'trial 0 started at 2.23079609871'
p47
a(lp48
I99
aF0.6718709468841553
aaS'trial 0 phase 1 started at 2.9026761055'
p49
aS'trial 0 event t at 2.90269112587'
p50
aS'fix signal -1 at 6.543367 '
p51
aS'staircase updated from 0.179454 after response 1 at 7.378823'
p52
aS'trial 0 key: z at time: 7.37885594368'
p53
aS'trial 0 event z at 7.37886500359'
p54
aS'trial 0 phase 2 started at 7.89328098297'
p55
aS'trial 0 phase 3 started at 8.89407396317'
p56
aS'stimulus draw for phase 0.000009, at 8.942078'
p57
aS'fix signal 1 at 9.411790 '
p58
aS'staircase updated from 0.177152 after response 1 at 10.081137'
p59
aS'trial 0 key: m at time: 10.0811841488'
p60
aS'trial 0 event m at 10.0811920166'
p61
aS'trial 0 phase 4 started at 11.8951711655'
p62
aa(lp63
S'trial 1 started at 11.9796481133'
p64
aS'trial 1 phase 1 started at 11.9796550274'
p65
aS'trial 1 phase 2 started at 11.9796600342'
p66
aS'trial 1 phase 3 started at 12.9956271648'
p67
aS'stimulus draw for phase 0.000009, at 13.043937'
p68
aS'trial 1 phase 4 started at 16.0330221653'
p69
aa(lp70
S'trial 2 started at 16.1155450344'
p71
aS'trial 2 phase 1 started at 16.1155531406'
p72
aS'trial 2 phase 2 started at 16.1155581474'
p73
aS'trial 2 phase 3 started at 17.1333861351'
p74
aS'stimulus draw for phase 0.000008, at 17.176406'
p75
aS'trial 2 phase 4 started at 20.1724340916'
p76
aa(lp77
S'trial 3 started at 20.2510349751'
p78
aS'trial 3 phase 1 started at 20.251044035'
p79
aS'trial 3 phase 2 started at 20.2510490417'
p80
aS'trial 3 phase 3 started at 21.2648820877'
p81
aS'stimulus draw for phase 0.000009, at 21.313017'
p82
a(lp83
I-99
aF1.1937110424041748
aaS'trial 3 event q at 21.4447801113'
p84
aas.