(dp0
S'parameterArray'
p1
(lp2
(dp3
S'num_elements'
p4
I2000
sS'baseline_color_for_task'
p5
F0.75
sS'task'
p6
S'yes_color_yes_speed'
p7
sS'orientation'
p8
F0.0
sS'element_size'
p9
F45.0
sS'task_index'
p10
cnumpy.core.multiarray
scalar
p11
(cnumpy
dtype
p12
(S'i8'
p13
I0
I1
tp14
Rp15
(I3
S'<'
p16
NNNI-1
I-1
I0
tp17
bS'\x03\x00\x00\x00\x00\x00\x00\x00'
p18
tp19
Rp20
sS'period'
p21
F36.0
sS'task_rate'
p22
F1.0
sS'mapper_period'
p23
F3.0
sS'bar_width_ratio'
p24
F0.1
sS'baseline_speed_for_task'
p25
F5.0
sS'refresh_frequency'
p26
F2.0
sS'stim_size'
p27
F0.66667
sS'stimulus_repetitions'
p28
I10
sS'element_spatial_frequency'
p29
F2.0
sa(dp30
g4
I2000
sg5
F0.75
sg6
S'yes_color_no_speed'
p31
sg8
F0.0
sg9
F45.0
sg10
g11
(g15
S'\x01\x00\x00\x00\x00\x00\x00\x00'
p32
tp33
Rp34
sg21
F36.0
sg22
F1.0
sg23
F3.0
sg24
F0.1
sg25
F5.0
sg26
F2.0
sg27
F0.66667
sg28
I10
sg29
F2.0
sa(dp35
g4
I2000
sg5
F0.75
sg6
S'fix_no_stim'
p36
sg8
F0.0
sg9
F45.0
sg10
g11
(g15
S'\x04\x00\x00\x00\x00\x00\x00\x00'
p37
tp38
Rp39
sg21
F36.0
sg22
F1.0
sg23
F3.0
sg24
F0.1
sg25
F5.0
sg26
F2.0
sg27
F0.66667
sg28
I10
sg29
F2.0
sa(dp40
g4
I2000
sg5
F0.75
sg6
S'no_color_no_speed'
p41
sg8
F0.0
sg9
F45.0
sg10
g11
(g15
S'\x00\x00\x00\x00\x00\x00\x00\x00'
p42
tp43
Rp44
sg21
F36.0
sg22
F1.0
sg23
F3.0
sg24
F0.1
sg25
F5.0
sg26
F2.0
sg27
F0.66667
sg28
I10
sg29
F2.0
sa(dp45
g4
I2000
sg5
F0.75
sg6
g7
sg8
F0.0
sg9
F45.0
sg10
g11
(g15
S'\x03\x00\x00\x00\x00\x00\x00\x00'
p46
tp47
Rp48
sg21
F36.0
sg22
F1.0
sg23
F3.0
sg24
F0.1
sg25
F5.0
sg26
F2.0
sg27
F0.66667
sg28
I10
sg29
F2.0
sa(dp49
g4
I2000
sg5
F0.75
sg6
g36
sg8
F0.0
sg9
F45.0
sg10
g11
(g15
S'\x04\x00\x00\x00\x00\x00\x00\x00'
p50
tp51
Rp52
sg21
F36.0
sg22
F1.0
sg23
F3.0
sg24
F0.1
sg25
F5.0
sg26
F2.0
sg27
F0.66667
sg28
I10
sg29
F2.0
sa(dp53
g4
I2000
sg5
F0.75
sg6
g31
sg8
F0.0
sg9
F45.0
sg10
g11
(g15
S'\x01\x00\x00\x00\x00\x00\x00\x00'
p54
tp55
Rp56
sg21
F36.0
sg22
F1.0
sg23
F3.0
sg24
F0.1
sg25
F5.0
sg26
F2.0
sg27
F0.66667
sg28
I10
sg29
F2.0
sa(dp57
g4
I2000
sg5
F0.75
sg6
g7
sg8
F0.0
sg9
F45.0
sg10
g11
(g15
S'\x03\x00\x00\x00\x00\x00\x00\x00'
p58
tp59
Rp60
sg21
F36.0
sg22
F1.0
sg23
F3.0
sg24
F0.1
sg25
F5.0
sg26
F2.0
sg27
F0.66667
sg28
I10
sg29
F2.0
sasS'eventArray'
p61
(lp62
(lp63
S'trial 0 started at 2.08434104919'
p64
a(lp65
I99
aF0.6509678363800049
aaS'trial 0 phase 1 started at 2.73531889915'
p66
aS'trial 0 event t at 2.73533296585'
p67
aS'fix signal -1 at 3.974837 '
p68
aS'staircase updated from 0.163006 after response 1 at 4.944322'
p69
aS'trial 0 key: z at time: 4.94435405731'
p70
aS'trial 0 event z at 4.9443628788'
p71
aS'fix signal 1 at 6.126922 '
p72
aS'staircase updated from 0.161121 after response 1 at 6.726946'
p73
aS'trial 0 key: m at time: 6.72696805'
p74
aS'trial 0 event m at 6.72697305679'
p75
aS'trial 0 phase 2 started at 7.72575306892'
p76
aS'fix signal 1 at 8.660191 '
p77
aS'trial 0 phase 3 started at 8.74309301376'
p78
aS'stimulus draw for phase 0.000010, at 8.795656'
p79
aS'staircase updated from 0.159294 after response 1 at 9.855692'
p80
aS'trial 0 key: m at time: 9.85572504997'
p81
aS'trial 0 event m at 9.85573387146'
p82
aS'trial 0 phase 4 started at 11.7732598782'
p83
aa(lp84
S'trial 1 started at 11.8606300354'
p85
aS'trial 1 phase 1 started at 11.8606379032'
p86
aS'trial 1 phase 2 started at 11.86064291'
p87
aS'trial 1 phase 3 started at 12.8615040779'
p88
aS'stimulus draw for phase 0.000009, at 12.906918'
p89
aS'fix signal 1 at 13.800771 '
p90
aS'staircase updated from 0.157559 after response 1 at 14.494885'
p91
aS'trial 1 key: m at time: 14.4949169159'
p92
aS'trial 1 event m at 14.4949259758'
p93
aS'trial 1 phase 4 started at 15.8985219002'
p94
aS'fix signal -1 at 15.899184 '
p95
aa(lp96
S'trial 2 started at 15.9804298878'
p97
aS'trial 2 phase 1 started at 15.980437994'
p98
aS'trial 2 phase 2 started at 15.9804430008'
p99
aS'trial 2 phase 3 started at 16.9967119694'
p100
aS'stimulus draw for phase 0.000009, at 17.042126'
p101
aS'fix signal -1 at 17.864465 '
p102
aS'trial 2 phase 4 started at 19.996753931'
p103
aS'fix signal -1 at 20.015959 '
p104
aa(lp105
S'trial 3 started at 20.0841319561'
p106
aS'trial 3 phase 1 started at 20.084141016'
p107
aS'trial 3 phase 2 started at 20.0841460228'
p108
aS'trial 3 phase 3 started at 21.1002089977'
p109
aS'stimulus draw for phase 0.000008, at 21.148816'
p110
aS'fix signal 1 at 21.998093 '
p111
aS'trial 3 phase 4 started at 24.1422600746'
p112
aS'fix signal 1 at 24.142938 '
p113
aa(lp114
S'trial 4 started at 24.2381539345'
p115
aS'trial 4 phase 1 started at 24.2381629944'
p116
aS'trial 4 phase 2 started at 24.2381680012'
p117
aS'trial 4 phase 3 started at 25.2511188984'
p118
aS'stimulus draw for phase 0.000009, at 25.295753'
p119
aS'fix signal -1 at 26.135776 '
p120
aS'trial 4 phase 4 started at 28.2887020111'
p121
aS'fix signal 1 at 28.289367 '
p122
aa(lp123
S'trial 5 started at 28.3709740639'
p124
aS'trial 5 phase 1 started at 28.3709828854'
p125
aS'trial 5 phase 2 started at 28.3709878922'
p126
aS'trial 5 phase 3 started at 29.3858399391'
p127
aS'stimulus draw for phase 0.000009, at 29.433614'
p128
aS'fix signal 1 at 30.270686 '
p129
aS'trial 5 phase 4 started at 32.3871040344'
p130
aS'fix signal -1 at 32.404620 '
p131
aa(lp132
S'trial 6 started at 32.4722518921'
p133
aS'trial 6 phase 1 started at 32.472260952'
p134
aS'trial 6 phase 2 started at 32.4722659588'
p135
aS'trial 6 phase 3 started at 33.4873969555'
p136
aS'stimulus draw for phase 0.000009, at 33.534031'
p137
aS'fix signal 1 at 34.378274 '
p138
aS'trial 6 phase 4 started at 36.5357470512'
p139
aS'fix signal 1 at 36.536410 '
p140
aa(lp141
S'trial 7 started at 36.6233000755'
p142
aS'trial 7 phase 1 started at 36.6233079433'
p143
aS'trial 7 phase 2 started at 36.6233139038'
p144
aS'trial 7 phase 3 started at 37.6396389008'
p145
aS'stimulus draw for phase 0.000009, at 37.692540'
p146
a(lp147
I-99
aF1.1998999118804932
aaS'trial 7 event q at 37.8232340813'
p148
aas.