(dp0
S'parameterArray'
p1
(lp2
(dp3
S'num_elements'
p4
I2000
sS'baseline_color_for_task'
p5
F0.75
sS'task'
p6
S'no_color_no_speed'
p7
sS'orientation'
p8
cnumpy.core.multiarray
scalar
p9
(cnumpy
dtype
p10
(S'f8'
p11
I0
I1
tp12
Rp13
(I3
S'<'
p14
NNNI-1
I-1
I0
tp15
bS'u\xa7\xbb\xe9\xbb\xfd\x15@'
p16
tp17
Rp18
sS'element_size'
p19
F45.0
sS'task_index'
p20
g9
(g10
(S'i8'
p21
I0
I1
tp22
Rp23
(I3
S'<'
p24
NNNI-1
I-1
I0
tp25
bS'\x00\x00\x00\x00\x00\x00\x00\x00'
p26
tp27
Rp28
sS'period'
p29
F36.0
sS'mapper_period'
p30
F3.0
sS'bar_width_ratio'
p31
F0.1
sS'baseline_speed_for_task'
p32
F5.0
sS'element_spatial_frequency'
p33
F2.0
sS'stim_size'
p34
F0.66667
sS'task_rate'
p35
F1.0
sS'refresh_frequency'
p36
F2.0
sa(dp37
g4
I2000
sg5
F0.75
sg6
g7
sg8
g9
(g13
S'\x18-DT\xfb!\t@'
p38
tp39
Rp40
sg19
F45.0
sg20
g9
(g23
S'\x00\x00\x00\x00\x00\x00\x00\x00'
p41
tp42
Rp43
sg29
F36.0
sg30
F3.0
sg31
F0.1
sg32
F5.0
sg33
F2.0
sg34
F0.66667
sg35
F1.0
sg36
F2.0
sa(dp44
g4
I2000
sg5
F0.75
sg6
S'yes_color_no_speed'
p45
sg8
g9
(g13
S'\xd2!3\x7f|\xd9\x12@'
p46
tp47
Rp48
sg19
F45.0
sg20
g9
(g23
S'\x01\x00\x00\x00\x00\x00\x00\x00'
p49
tp50
Rp51
sg29
F36.0
sg30
F3.0
sg31
F0.1
sg32
F5.0
sg33
F2.0
sg34
F0.66667
sg35
F1.0
sg36
F2.0
sasS'eventArray'
p52
(lp53
(lp54
S'trial 0 started at 2.21435904503'
p55
a(lp56
I99
aF0.32372283935546875
aaS'trial 0 phase 1 started at 2.53808689117'
p57
aS'trial 0 event t at 2.53810405731'
p58
aS'fix signal 1 at 4.745114 '
p59
aS'staircase updated from 0.192686 after response 1 at 5.631040'
p60
aS'trial 0 key: m at time: 5.63107085228'
p61
aS'trial 0 event m at 5.63108086586'
p62
aS'fix signal 1 at 6.994962 '
p63
aS'trial 0 phase 2 started at 7.5291800499'
p64
aS'staircase updated from 0.173357 after response 1 at 7.581515'
p65
aS'trial 0 key: m at time: 7.58154797554'
p66
aS'trial 0 event m at 7.58155703545'
p67
aS'trial 0 phase 3 started at 8.52968096733'
p68
aS'stimulus draw for phase 0.000009, at 8.577722'
p69
aS'fix signal 1 at 10.642431 '
p70
aS'staircase updated from 0.157010 after response 1 at 11.291768'
p71
aS'trial 0 key: m at time: 11.2918019295'
p72
aS'trial 0 event m at 11.2918119431'
p73
aS'trial 0 phase 4 started at 11.5567059517'
p74
aa(lp75
S'trial 1 started at 11.6324188709'
p76
aS'trial 1 phase 1 started at 11.6324269772'
p77
aS'trial 1 phase 2 started at 11.6324319839'
p78
aS'trial 1 phase 3 started at 12.6481769085'
p79
aS'stimulus draw for phase 0.000008, at 12.694322'
p80
aS'fix signal 1 at 14.158467 '
p81
aS'staircase updated from 0.143684 after response 1 at 14.831111'
p82
aS'trial 1 key: m at time: 14.8311460018'
p83
aS'trial 1 event m at 14.8311550617'
p84
aS'trial 1 phase 4 started at 15.6581439972'
p85
aa(lp86
S'trial 2 started at 15.7326960564'
p87
aS'trial 2 phase 1 started at 15.7327048779'
p88
aS'trial 2 phase 2 started at 15.7327098846'
p89
aS'trial 2 phase 3 started at 16.7342710495'
p90
aS'stimulus draw for phase 0.000009, at 16.780389'
p91
aS'fix signal 1 at 18.281750 '
p92
aS'staircase updated from 0.131086 after response 1 at 18.874169'
p93
aS'trial 2 key: m at time: 18.8742010593'
p94
aS'trial 2 event m at 18.8742098808'
p95
a(lp96
I-99
aF3.589231014251709
aaS'trial 2 event escape at 19.3219618797'
p97
aas.