(dp0
S'parameterArray'
p1
(lp2
(dp3
S'num_elements'
p4
I2000
sS'baseline_color_for_task'
p5
F0.75
sS'task'
p6
S'no_color_yes_speed'
p7
sS'orientation'
p8
cnumpy.core.multiarray
scalar
p9
(cnumpy
dtype
p10
(S'f8'
p11
I0
I1
tp12
Rp13
(I3
S'<'
p14
NNNI-1
I-1
I0
tp15
bS'\xd2!3\x7f|\xd9\x12@'
p16
tp17
Rp18
sS'element_size'
p19
F45.0
sS'task_index'
p20
g9
(g10
(S'i8'
p21
I0
I1
tp22
Rp23
(I3
S'<'
p24
NNNI-1
I-1
I0
tp25
bS'\x02\x00\x00\x00\x00\x00\x00\x00'
p26
tp27
Rp28
sS'period'
p29
F36.0
sS'mapper_period'
p30
F3.0
sS'bar_width_ratio'
p31
F0.125
sS'refresh_frequency_mapper'
p32
F0.3333333333333333
sS'baseline_speed_for_task'
p33
F5.0
sS'element_spatial_frequency'
p34
F2.0
sS'stim_size'
p35
F0.66667
sS'task_rate'
p36
F3.0
sS'refresh_frequency'
p37
F2.0
sa(dp38
g4
I2000
sg5
F0.75
sg6
S'no_color_no_speed'
p39
sg8
g9
(g13
S'\xd2!3\x7f|\xd9\x12@'
p40
tp41
Rp42
sg19
F45.0
sg20
g9
(g23
S'\x00\x00\x00\x00\x00\x00\x00\x00'
p43
tp44
Rp45
sg29
F36.0
sg30
F3.0
sg31
F0.125
sg32
F0.3333333333333333
sg33
F5.0
sg34
F2.0
sg35
F0.66667
sg36
F3.0
sg37
F2.0
sa(dp46
g4
I2000
sg5
F0.75
sg6
S'yes_color_no_speed'
p47
sg8
g9
(g13
S'\xd2!3\x7f|\xd9\x02@'
p48
tp49
Rp50
sg19
F45.0
sg20
g9
(g23
S'\x01\x00\x00\x00\x00\x00\x00\x00'
p51
tp52
Rp53
sg29
F36.0
sg30
F3.0
sg31
F0.125
sg32
F0.3333333333333333
sg33
F5.0
sg34
F2.0
sg35
F0.66667
sg36
F3.0
sg37
F2.0
sa(dp54
g4
I2000
sg5
F0.75
sg6
g7
sg8
g9
(g13
S'\x18-DT\xfb!\xf9?'
p55
tp56
Rp57
sg19
F45.0
sg20
g9
(g23
S'\x02\x00\x00\x00\x00\x00\x00\x00'
p58
tp59
Rp60
sg29
F36.0
sg30
F3.0
sg31
F0.125
sg32
F0.3333333333333333
sg33
F5.0
sg34
F2.0
sg35
F0.66667
sg36
F3.0
sg37
F2.0
sasS'eventArray'
p61
(lp62
(lp63
S'trial 0 started at 2.26318001747'
p64
a(lp65
I99
aF0.32628798484802246
aaS'trial 0 phase 1 started at 2.58947300911'
p66
aS'trial 0 event t at 2.58949303627'
p67
aS'trial 0 phase 2 started at 7.58059692383'
p68
aS'trial 0 phase 3 started at 8.5809879303'
p69
aS'stimulus draw for phase 0.000010, at 8.619213'
p70
aS'trial 0 phase 4 started at 11.601047039'
p71
aa(lp72
S'trial 1 started at 11.6820249557'
p73
aS'trial 1 phase 1 started at 11.682033062'
p74
aS'trial 1 phase 2 started at 11.6820380688'
p75
aS'trial 1 phase 3 started at 12.682587862'
p76
aS'stimulus draw for phase 0.000010, at 12.720341'
p77
aS'trial 1 phase 4 started at 15.6876690388'
p78
aa(lp79
S'trial 2 started at 15.7743718624'
p80
aS'trial 2 phase 1 started at 15.7743809223'
p81
aS'trial 2 phase 2 started at 15.7743849754'
p82
aS'trial 2 phase 3 started at 16.7847678661'
p83
aS'stimulus draw for phase 0.000010, at 16.822404'
p84
aS'trial 2 phase 4 started at 19.8108620644'
p85
aa(lp86
S'trial 3 started at 19.8835098743'
p87
aS'trial 3 phase 1 started at 19.8835179806'
p88
aS'trial 3 phase 2 started at 19.8835229874'
p89
aS'trial 3 phase 3 started at 20.8861339092'
p90
aS'stimulus draw for phase 0.000010, at 20.923722'
p91
a(lp92
I-99
aF2.0349490642547607
aaS'trial 3 event escape at 21.9184930325'
p93
aas.