(dp0
S'parameterArray'
p1
(lp2
(dp3
S'num_elements'
p4
I2000
sS'baseline_color_for_task'
p5
F0.75
sS'task'
p6
S'no_color_yes_speed'
p7
sS'orientation'
p8
F0.0
sS'element_size'
p9
F45.0
sS'task_index'
p10
cnumpy.core.multiarray
scalar
p11
(cnumpy
dtype
p12
(S'i8'
p13
I0
I1
tp14
Rp15
(I3
S'<'
p16
NNNI-1
I-1
I0
tp17
bS'\x02\x00\x00\x00\x00\x00\x00\x00'
p18
tp19
Rp20
sS'period'
p21
F36.0
sS'task_rate'
p22
F1.0
sS'mapper_period'
p23
F3.0
sS'bar_width_ratio'
p24
F0.1
sS'baseline_speed_for_task'
p25
F5.0
sS'refresh_frequency'
p26
F2.0
sS'stim_size'
p27
F0.66667
sS'stimulus_repetitions'
p28
I10
sS'element_spatial_frequency'
p29
F2.0
sa(dp30
g4
I2000
sg5
F0.75
sg6
S'no_color_no_speed'
p31
sg8
F0.0
sg9
F45.0
sg10
g11
(g15
S'\x00\x00\x00\x00\x00\x00\x00\x00'
p32
tp33
Rp34
sg21
F36.0
sg22
F1.0
sg23
F3.0
sg24
F0.1
sg25
F5.0
sg26
F2.0
sg27
F0.66667
sg28
I10
sg29
F2.0
sa(dp35
g4
I2000
sg5
F0.75
sg6
S'yes_color_yes_speed'
p36
sg8
F0.0
sg9
F45.0
sg10
g11
(g15
S'\x03\x00\x00\x00\x00\x00\x00\x00'
p37
tp38
Rp39
sg21
F36.0
sg22
F1.0
sg23
F3.0
sg24
F0.1
sg25
F5.0
sg26
F2.0
sg27
F0.66667
sg28
I10
sg29
F2.0
sa(dp40
g4
I2000
sg5
F0.75
sg6
g7
sg8
F0.0
sg9
F45.0
sg10
g11
(g15
S'\x02\x00\x00\x00\x00\x00\x00\x00'
p41
tp42
Rp43
sg21
F36.0
sg22
F1.0
sg23
F3.0
sg24
F0.1
sg25
F5.0
sg26
F2.0
sg27
F0.66667
sg28
I10
sg29
F2.0
sasS'eventArray'
p44
(lp45
(lp46
S'trial 0 started at 2.04288506508'
p47
a(lp48
I99
aF0.8768961429595947
aaS'trial 0 phase 1 started at 2.91978502274'
p49
aS'trial 0 event t at 2.91980409622'
p50
aS'trial 0 phase 2 started at 7.90889215469'
p51
aS'trial 0 phase 3 started at 8.91065311432'
p52
aS'stimulus draw for phase 0.000009, at 8.959043'
p53
aS'fix signal 1 at 9.955535 '
p54
aS'staircase updated from 0.061617 after response 0 at 10.849850'
p55
aS'trial 0 key: z at time: 10.8498840332'
p56
aS'trial 0 event z at 10.8498930931'
p57
aS'trial 0 phase 4 started at 11.9573931694'
p58
aa(lp59
S'trial 1 started at 12.0458171368'
p60
aS'trial 1 phase 1 started at 12.0458261967'
p61
aS'trial 1 phase 2 started at 12.0458312035'
p62
aS'trial 1 phase 3 started at 13.0614631176'
p63
aS'stimulus draw for phase 0.000010, at 13.106297'
p64
aS'fix signal -1 at 13.763236 '
p65
aS'staircase updated from 0.102584 after response 0 at 14.441844'
p66
aS'trial 1 key: m at time: 14.4418771267'
p67
aS'trial 1 event m at 14.4418871403'
p68
aS'trial 1 phase 4 started at 16.0618071556'
p69
aS'fix signal -1 at 16.081506 '
p70
aa(lp71
S'trial 2 started at 16.1525890827'
p72
aS'trial 2 phase 1 started at 16.1525981426'
p73
aS'trial 2 phase 2 started at 16.1526031494'
p74
aS'trial 2 phase 3 started at 17.164853096'
p75
aS'stimulus draw for phase 0.000009, at 17.210653'
p76
aS'fix signal 1 at 17.858572 '
p77
aS'staircase updated from 0.132927 after response 1 at 18.599059'
p78
aS'trial 2 key: m at time: 18.599091053'
p79
aS'trial 2 event m at 18.5991010666'
p80
aS'trial 2 phase 4 started at 20.2041370869'
p81
aS'fix signal 1 at 20.204849 '
p82
aa(lp83
S'trial 3 started at 20.2836670876'
p84
aS'trial 3 phase 1 started at 20.2836751938'
p85
aS'trial 3 phase 2 started at 20.2836802006'
p86
aS'trial 3 phase 3 started at 21.2839241028'
p87
aS'stimulus draw for phase 0.000009, at 21.330246'
p88
a(lp89
I-99
aF1.6734530925750732
aaS'trial 3 event escape at 21.9571521282'
p90
aas.