(dp0
S'parameterArray'
p1
(lp2
(dp3
S'num_elements'
p4
I2000
sS'baseline_color_for_task'
p5
F0.75
sS'task'
p6
S'no_color_yes_speed'
p7
sS'orientation'
p8
cnumpy.core.multiarray
scalar
p9
(cnumpy
dtype
p10
(S'f8'
p11
I0
I1
tp12
Rp13
(I3
S'<'
p14
NNNI-1
I-1
I0
tp15
bS'\x18-DT\xfb!\t@'
p16
tp17
Rp18
sS'element_size'
p19
F45.0
sS'task_index'
p20
g9
(g10
(S'i8'
p21
I0
I1
tp22
Rp23
(I3
S'<'
p24
NNNI-1
I-1
I0
tp25
bS'\x02\x00\x00\x00\x00\x00\x00\x00'
p26
tp27
Rp28
sS'period'
p29
F36.0
sS'mapper_period'
p30
F3.0
sS'bar_width_ratio'
p31
F0.1
sS'refresh_frequency_mapper'
p32
F0.3333333333333333
sS'baseline_speed_for_task'
p33
F5.0
sS'element_spatial_frequency'
p34
F2.0
sS'stim_size'
p35
F0.66667
sS'task_rate'
p36
F1.0
sS'refresh_frequency'
p37
F2.0
sa(dp38
g4
I2000
sg5
F0.75
sg6
S'no_color_no_speed'
p39
sg8
g9
(g13
S'^8U)zj\x0f@'
p40
tp41
Rp42
sg19
F45.0
sg20
g9
(g23
S'\x00\x00\x00\x00\x00\x00\x00\x00'
p43
tp44
Rp45
sg29
F36.0
sg30
F3.0
sg31
F0.1
sg32
F0.3333333333333333
sg33
F5.0
sg34
F2.0
sg35
F0.66667
sg36
F1.0
sg37
F2.0
sa(dp46
g4
I2000
sg5
F0.75
sg6
S'yes_color_no_speed'
p47
sg8
g9
(g13
S'u\xa7\xbb\xe9\xbb\xfd\x15@'
p48
tp49
Rp50
sg19
F45.0
sg20
g9
(g23
S'\x01\x00\x00\x00\x00\x00\x00\x00'
p51
tp52
Rp53
sg29
F36.0
sg30
F3.0
sg31
F0.1
sg32
F0.3333333333333333
sg33
F5.0
sg34
F2.0
sg35
F0.66667
sg36
F1.0
sg37
F2.0
sa(dp54
g4
I2000
sg5
F0.75
sg6
S'fix_no_stim'
p55
sg8
g9
(g13
S'\x00\x00\x00\x00\x00\x00\x00\x00'
p56
tp57
Rp58
sg19
F45.0
sg20
g9
(g23
S'\x04\x00\x00\x00\x00\x00\x00\x00'
p59
tp60
Rp61
sg29
F36.0
sg30
F3.0
sg31
F0.1
sg32
F0.3333333333333333
sg33
F5.0
sg34
F2.0
sg35
F0.66667
sg36
F1.0
sg37
F2.0
sasS'eventArray'
p62
(lp63
(lp64
S'trial 0 started at 2.20405292511'
p65
a(lp66
I99
aF1.0699400901794434
aaS'trial 0 phase 1 started at 3.27399682999'
p67
aS'trial 0 event t at 3.27401280403'
p68
aS'trial 0 phase 2 started at 8.26409196854'
p69
aS'trial 0 phase 3 started at 9.28078699112'
p70
aS'stimulus draw for phase 0.000010, at 9.332368'
p71
aS'trial 0 phase 4 started at 12.3131239414'
p72
aa(lp73
S'trial 1 started at 12.4047439098'
p74
aS'trial 1 phase 1 started at 12.4047520161'
p75
aS'trial 1 phase 2 started at 12.4047570229'
p76
aS'trial 1 phase 3 started at 13.4171638489'
p77
aS'stimulus draw for phase 0.000010, at 13.467274'
p78
aS'trial 1 phase 4 started at 16.4585409164'
p79
aa(lp80
S'trial 2 started at 16.5384979248'
p81
aS'trial 2 phase 1 started at 16.5385079384'
p82
aS'trial 2 phase 2 started at 16.5385129452'
p83
aS'trial 2 phase 3 started at 17.5525898933'
p84
aS'stimulus draw for phase 0.000013, at 17.618574'
p85
aS'trial 2 phase 4 started at 20.5557689667'
p86
aa(lp87
S'trial 3 started at 20.6398539543'
p88
aS'trial 3 phase 1 started at 20.6398630142'
p89
aS'trial 3 phase 2 started at 20.639868021'
p90
aS'trial 3 phase 3 started at 21.6515269279'
p91
aS'stimulus draw for phase 0.000005, at 21.701635'
p92
a(lp93
I-99
aF2.647273063659668
aaS'trial 3 event escape at 23.2871580124'
p94
aas.