(dp0
S'parameterArray'
p1
(lp2
(dp3
S'num_elements'
p4
cnumpy.core.multiarray
scalar
p5
(cnumpy
dtype
p6
(S'f8'
p7
I0
I1
tp8
Rp9
(I3
S'<'
p10
NNNI-1
I-1
I0
tp11
bS'\x00\x00\x00\x00\x00@\x9f@'
p12
tp13
Rp14
sS'baseline_color_for_task'
p15
F0.75
sS'orientation'
p16
g5
(g9
S'u\xa7\xbb\xe9\xbb\xfd\x15@'
p17
tp18
Rp19
sS'element_size'
p20
F45.0
sS'task_index'
p21
g5
(g6
(S'i8'
p22
I0
I1
tp23
Rp24
(I3
S'<'
p25
NNNI-1
I-1
I0
tp26
bS'\x06\x00\x00\x00\x00\x00\x00\x00'
p27
tp28
Rp29
sS'period'
p30
F36.0
sS'task_rate'
p31
F1.0
sS'mapper_period'
p32
F3.0
sS'bar_width_ratio'
p33
F0.1
sS'baseline_speed_for_task'
p34
F5.0
sS'unique_task'
p35
I2
sS'refresh_frequency'
p36
F2.0
sS'stim_size'
p37
F0.66667
sS'stimulus_repetitions'
p38
I10
sS'element_spatial_frequency'
p39
F2.0
sasS'eventArray'
p40
(lp41
(lp42
S'trial 0 started at 2.19285011292'
p43
aS'trial 0 key: num_subtract at time: 2.1939330101'
p44
aS'trial 0 event num_subtract at 2.19394111633'
p45
a(lp46
I99
aF0.6588490009307861
aaS'trial 0 phase 1 started at 2.85171604156'
p47
aS'trial 0 key: t at time: 2.85172796249'
p48
aS'trial 0 event t at 2.85173606873'
p49
aS'trial 0 phase 2 started at 7.85102200508'
p50
aS'trial 0 phase 3 started at 10.852200985'
p51
aS'stimulus draw for phase 0.000001, at 10.862580'
p52
aS'stimulus draw for phase 0.014371, at 11.379977'
p53
aS'stimulus draw for phase 0.027815, at 11.863802'
p54
aS'signal in feature: Fix ecc bin: 3 phase: 0.042 value: -0.068528 at 12.354002 '
p55
aS'stimulus draw for phase 0.041695, at 12.366762'
p56
aS'signal in feature: Speed ecc bin: 3 phase: 0.056 value: 0.372854 at 12.854319 '
p57
aS'stimulus draw for phase 0.055596, at 12.864122'
p58
aS'stimulus draw for phase 0.069899, at 13.378967'
p59
aS'staircase Fix bin 3 updated from 0.068528 after response 1 at 13.472617'
p60
aS'trial 0 key: z at time: 13.4726550579'
p61
aS'trial 0 event z at 13.4726641178'
p62
aS'stimulus draw for phase 0.083369, at 13.863938'
p63
aS'signal in feature: Fix ecc bin: 3 phase: 0.097 value: -0.061617 at 14.354328 '
p64
aS'stimulus draw for phase 0.097262, at 14.367203'
p65
aS'stimulus draw for phase 0.111157, at 14.864183'
p66
aS'stimulus draw for phase 0.125056, at 15.364574'
p67
aS'staircase Fix bin 2 updated from 0.061617 after response 1 at 15.640190'
p68
aS'trial 0 key: z at time: 15.6402299404'
p69
aS'trial 0 event z at 15.6402390003'
p70
aS'stimulus draw for phase 0.138943, at 15.864472'
p71
aS'stimulus draw for phase 0.152845, at 16.364940'
p72
aS'signal in feature: Fix ecc bin: 2 phase: 0.167 value: 0.149287 at 16.853515 '
p73
aS'stimulus draw for phase 0.166690, at 16.863117'
p74
aS'signal in feature: Color ecc bin: 2 phase: 0.181 value: -0.093431 at 17.356605 '
p75
aS'stimulus draw for phase 0.180660, at 17.366536'
p76
aS'staircase Fix bin 2 updated from 0.149287 after response 1 at 17.609204'
p77
aS'trial 0 key: m at time: 17.6092369556'
p78
aS'trial 0 event m at 17.6092460155'
p79
aS'stimulus draw for phase 0.194552, at 17.866463'
p80
aS'stimulus draw for phase 0.208391, at 18.364626'
p81
aS'signal in feature: Speed ecc bin: 2 phase: 0.222 value: -0.221942 at 18.856491 '
p82
aS'stimulus draw for phase 0.222323, at 18.866245'
p83
aS'stimulus draw for phase 0.236209, at 19.367176'
p84
aS'stimulus draw for phase 0.250121, at 19.867204'
p85
aS'stimulus draw for phase 0.264009, at 20.366866'
p86
aS'signal in feature: Fix ecc bin: 1 phase: 0.278 value: -0.173394 at 20.857361 '
p87
aS'stimulus draw for phase 0.277901, at 20.870122'
p88
aS'signal in feature: Speed ecc bin: 1 phase: 0.292 value: 0.952626 at 21.357524 '
p89
aS'stimulus draw for phase 0.291796, at 21.367339'
p90
aS'stimulus draw for phase 0.305696, at 21.867578'
p91
aS'staircase Fix bin 1 updated from 0.173394 after response 1 at 22.043590'
p92
aS'trial 0 key: z at time: 22.043628931'
p93
aS'trial 0 event z at 22.0436370373'
p94
aS'signal in feature: Color ecc bin: 1 phase: 0.320 value: -0.262512 at 22.358185 '
p95
aS'stimulus draw for phase 0.319593, at 22.368037'
p96
aS'stimulus draw for phase 0.333510, at 22.869086'
p97
aS'signal in feature: Fix ecc bin: 1 phase: 0.347 value: 0.169878 at 23.358345 '
p98
aS'stimulus draw for phase 0.347373, at 23.371151'
p99
aS'stimulus draw for phase 0.361269, at 23.868790'
p100
aS'staircase Fix bin 1 updated from 0.169878 after response 0 at 23.925612'
p101
aS'trial 0 key: z at time: 23.9256529808'
p102
aS'trial 0 event z at 23.9256629944'
p103
a(lp104
I-99
aF21.799612998962402
aaS'trial 0 key: escape at time: 23.9924910069'
p105
aS'trial 0 event escape at 23.9925019741'
p106
aas.