(dp0
S'parameterArray'
p1
(lp2
(dp3
S'num_elements'
p4
cnumpy.core.multiarray
scalar
p5
(cnumpy
dtype
p6
(S'f8'
p7
I0
I1
tp8
Rp9
(I3
S'<'
p10
NNNI-1
I-1
I0
tp11
bS'\x00\x00\x00\x00\x00@\x9f@'
p12
tp13
Rp14
sS'orientation'
p15
g5
(g9
S'\x18-DT\xfb!\xe9?'
p16
tp17
Rp18
sS'element_size'
p19
F45.0
sS'task_index'
p20
g5
(g6
(S'i8'
p21
I0
I1
tp22
Rp23
(I3
S'<'
p24
NNNI-1
I-1
I0
tp25
bS'\x02\x00\x00\x00\x00\x00\x00\x00'
p26
tp27
Rp28
sS'period'
p29
F36.0
sS'baseline_color_for_task'
p30
F0.75
sS'bar_width_ratio'
p31
F0.08333375
sS'baseline_speed_for_task'
p32
F5.0
sS'unique_task'
p33
I0
sS'refresh_frequency'
p34
F2.0
sS'stim_size'
p35
F0.66667
sS'task_rate'
p36
F3.0
sS'element_spatial_frequency'
p37
F2.0
sasS'eventArray'
p38
(lp39
(lp40
S'trial 0 started at 2.31812787056'
p41
a(lp42
I99
aF1.0053901672363281
aaS'trial 0 phase 1 started at 3.32352685928'
p43
aS'trial 0 key: t at time: 3.32353591919'
p44
aS'trial 0 event t at 3.32354187965'
p45
aS'trial 0 key: lcommand at time: 8.01332497597'
p46
aS'trial 0 event lcommand at 8.01333594322'
p47
a(lp48
I-99
aF5.765689134597778
aaS'trial 0 key: q at time: 8.08384799957'
p49
aS'trial 0 event q at 8.0838599205'
p50
aas.