(dp0
S'parameterArray'
p1
(lp2
(dp3
S'num_elements'
p4
I2000
sS'baseline_color_for_task'
p5
F0.75
sS'task'
p6
S'yes_color_no_speed'
p7
sS'orientation'
p8
cnumpy.core.multiarray
scalar
p9
(cnumpy
dtype
p10
(S'f8'
p11
I0
I1
tp12
Rp13
(I3
S'<'
p14
NNNI-1
I-1
I0
tp15
bS'\x18-DT\xfb!\xe9?'
p16
tp17
Rp18
sS'element_size'
p19
F45.0
sS'task_index'
p20
g9
(g10
(S'i8'
p21
I0
I1
tp22
Rp23
(I3
S'<'
p24
NNNI-1
I-1
I0
tp25
bS'\x01\x00\x00\x00\x00\x00\x00\x00'
p26
tp27
Rp28
sS'period'
p29
F36.0
sS'mapper_period'
p30
F3.0
sS'bar_width_ratio'
p31
F0.125
sS'baseline_speed_for_task'
p32
F5.0
sS'element_spatial_frequency'
p33
F2.0
sS'stim_size'
p34
F0.66667
sS'task_rate'
p35
F3.0
sS'refresh_frequency'
p36
F2.0
sa(dp37
g4
I2000
sg5
F0.75
sg6
S'no_color_yes_speed'
p38
sg8
g9
(g13
S'\xd2!3\x7f|\xd9\x12@'
p39
tp40
Rp41
sg19
F45.0
sg20
g9
(g23
S'\x02\x00\x00\x00\x00\x00\x00\x00'
p42
tp43
Rp44
sg29
F36.0
sg30
F3.0
sg31
F0.125
sg32
F5.0
sg33
F2.0
sg34
F0.66667
sg35
F3.0
sg36
F2.0
sa(dp45
g4
I2000
sg5
F0.75
sg6
S'yes_color_yes_speed'
p46
sg8
g9
(g13
S'u\xa7\xbb\xe9\xbb\xfd\x15@'
p47
tp48
Rp49
sg19
F45.0
sg20
g9
(g23
S'\x03\x00\x00\x00\x00\x00\x00\x00'
p50
tp51
Rp52
sg29
F36.0
sg30
F3.0
sg31
F0.125
sg32
F5.0
sg33
F2.0
sg34
F0.66667
sg35
F3.0
sg36
F2.0
sasS'eventArray'
p53
(lp54
(lp55
S'trial 0 started at 2.03462505341'
p56
a(lp57
I99
aF1.3039789199829102
aaS'trial 0 phase 1 started at 3.3386080265'
p58
aS'trial 0 event t at 3.33862400055'
p59
aS'trial 0 phase 2 started at 8.3294711113'
p60
aS'trial 0 phase 3 started at 9.33055901527'
p61
aS'stimulus draw for phase 0.000010, at 9.368793'
p62
aS'stimulus draw for phase 0.168013, at 9.871734'
p63
aS'stimulus draw for phase 0.336429, at 10.377395'
p64
aS'stimulus draw for phase 0.502477, at 10.875861'
p65
aS'stimulus draw for phase 0.680246, at 11.408444'
p66
aS'stimulus draw for phase 0.840605, at 11.889576'
p67
aS'trial 0 phase 4 started at 12.3333671093'
p68
aa(lp69
S'trial 1 started at 12.4156410694'
p70
aS'trial 1 phase 1 started at 12.4156489372'
p71
aS'trial 1 phase 2 started at 12.415653944'
p72
aS'trial 1 phase 3 started at 13.431841135'
p73
aS'stimulus draw for phase 0.000010, at 13.468985'
p74
aS'stimulus draw for phase 0.180419, at 14.010398'
p75
aS'stimulus draw for phase 0.333795, at 14.470442'
p76
aS'stimulus draw for phase 0.514198, at 15.011857'
p77
aS'stimulus draw for phase 0.677220, at 15.500909'
p78
aS'stimulus draw for phase 0.840253, at 15.989846'
p79
aS'trial 1 phase 4 started at 16.4415199757'
p80
aa(lp81
S'trial 2 started at 16.5109930038'
p82
aS'trial 2 phase 1 started at 16.5110011101'
p83
aS'trial 2 phase 2 started at 16.5110061169'
p84
aS'trial 2 phase 3 started at 17.516849041'
p85
aS'stimulus draw for phase 0.000010, at 17.554706'
p86
a(lp87
I-99
aF1.4477341175079346
aaS'trial 2 event escape at 17.9587619305'
p88
aas.