(dp0
S'parameterArray'
p1
(lp2
(dp3
S'num_elements'
p4
I2000
sS'baseline_color_for_task'
p5
F0.75
sS'task'
p6
S'no_color_yes_speed'
p7
sS'orientation'
p8
cnumpy.core.multiarray
scalar
p9
(cnumpy
dtype
p10
(S'f8'
p11
I0
I1
tp12
Rp13
(I3
S'<'
p14
NNNI-1
I-1
I0
tp15
bS'\x00\x00\x00\x00\x00\x00\x00\x00'
p16
tp17
Rp18
sS'element_size'
p19
F45.0
sS'task_index'
p20
g9
(g10
(S'i8'
p21
I0
I1
tp22
Rp23
(I3
S'<'
p24
NNNI-1
I-1
I0
tp25
bS'\x02\x00\x00\x00\x00\x00\x00\x00'
p26
tp27
Rp28
sS'period'
p29
F36.0
sS'mapper_period'
p30
F3.0
sS'bar_width_ratio'
p31
F0.1
sS'refresh_frequency_mapper'
p32
F0.3333333333333333
sS'baseline_speed_for_task'
p33
F5.0
sS'element_spatial_frequency'
p34
F2.0
sS'stim_size'
p35
F0.66667
sS'task_rate'
p36
F3.0
sS'refresh_frequency'
p37
F2.0
sa(dp38
g4
I2000
sg5
F0.75
sg6
S'yes_color_yes_speed'
p39
sg8
g9
(g13
S'^8U)zj\x0f@'
p40
tp41
Rp42
sg19
F45.0
sg20
g9
(g23
S'\x03\x00\x00\x00\x00\x00\x00\x00'
p43
tp44
Rp45
sg29
F36.0
sg30
F3.0
sg31
F0.1
sg32
F0.3333333333333333
sg33
F5.0
sg34
F2.0
sg35
F0.66667
sg36
F3.0
sg37
F2.0
sa(dp46
g4
I2000
sg5
F0.75
sg6
S'yes_color_no_speed'
p47
sg8
g9
(g13
S'^8U)zj\x0f@'
p48
tp49
Rp50
sg19
F45.0
sg20
g9
(g23
S'\x01\x00\x00\x00\x00\x00\x00\x00'
p51
tp52
Rp53
sg29
F36.0
sg30
F3.0
sg31
F0.1
sg32
F0.3333333333333333
sg33
F5.0
sg34
F2.0
sg35
F0.66667
sg36
F3.0
sg37
F2.0
sa(dp54
g4
I2000
sg5
F0.75
sg6
S'fix_no_stim'
p55
sg8
g9
(g13
S'\xd2!3\x7f|\xd9\x02@'
p56
tp57
Rp58
sg19
F45.0
sg20
g9
(g23
S'\x04\x00\x00\x00\x00\x00\x00\x00'
p59
tp60
Rp61
sg29
F36.0
sg30
F3.0
sg31
F0.1
sg32
F0.3333333333333333
sg33
F5.0
sg34
F2.0
sg35
F0.66667
sg36
F3.0
sg37
F2.0
sa(dp62
g4
I2000
sg5
F0.75
sg6
g55
sg8
g9
(g13
S'\x18-DT\xfb!\xe9?'
p63
tp64
Rp65
sg19
F45.0
sg20
g9
(g23
S'\x04\x00\x00\x00\x00\x00\x00\x00'
p66
tp67
Rp68
sg29
F36.0
sg30
F3.0
sg31
F0.1
sg32
F0.3333333333333333
sg33
F5.0
sg34
F2.0
sg35
F0.66667
sg36
F3.0
sg37
F2.0
sa(dp69
g4
I2000
sg5
F0.75
sg6
S'no_color_no_speed'
p70
sg8
g9
(g13
S'\x18-DT\xfb!\xf9?'
p71
tp72
Rp73
sg19
F45.0
sg20
g9
(g23
S'\x00\x00\x00\x00\x00\x00\x00\x00'
p74
tp75
Rp76
sg29
F36.0
sg30
F3.0
sg31
F0.1
sg32
F0.3333333333333333
sg33
F5.0
sg34
F2.0
sg35
F0.66667
sg36
F3.0
sg37
F2.0
sa(dp77
g4
I2000
sg5
F0.75
sg6
g47
sg8
g9
(g13
S'\x00\x00\x00\x00\x00\x00\x00\x00'
p78
tp79
Rp80
sg19
F45.0
sg20
g9
(g23
S'\x01\x00\x00\x00\x00\x00\x00\x00'
p81
tp82
Rp83
sg29
F36.0
sg30
F3.0
sg31
F0.1
sg32
F0.3333333333333333
sg33
F5.0
sg34
F2.0
sg35
F0.66667
sg36
F3.0
sg37
F2.0
sasS'eventArray'
p84
(lp85
(lp86
S'trial 0 started at 2.51806807518'
p87
a(lp88
I99
aF0.3229198455810547
aaS'trial 0 phase 1 started at 2.84099292755'
p89
aS'trial 0 event t at 2.84101200104'
p90
aS'trial 0 phase 2 started at 7.82946395874'
p91
aS'trial 0 phase 3 started at 8.83285903931'
p92
aS'stimulus draw for phase 0.000010, at 8.880906'
p93
aS'trial 0 phase 4 started at 11.8807680607'
p94
aa(lp95
S'trial 1 started at 11.9753370285'
p96
aS'trial 1 phase 1 started at 11.9753451347'
p97
aS'trial 1 phase 2 started at 11.9753501415'
p98
aS'trial 1 phase 3 started at 12.9842569828'
p99
aS'stimulus draw for phase 0.000010, at 13.030447'
p100
aS'trial 1 phase 4 started at 16.0212850571'
p101
aa(lp102
S'trial 2 started at 16.1112880707'
p103
aS'trial 2 phase 1 started at 16.1112971306'
p104
aS'trial 2 phase 2 started at 16.1113021374'
p105
aS'trial 2 phase 3 started at 17.1195030212'
p106
aS'stimulus draw for phase 0.000010, at 17.165603'
p107
aS'trial 2 phase 4 started at 20.149668932'
p108
aa(lp109
S'trial 3 started at 20.2440540791'
p110
aS'trial 3 phase 1 started at 20.244063139'
p111
aS'trial 3 phase 2 started at 20.2440681458'
p112
aS'trial 3 phase 3 started at 21.255368948'
p113
aS'stimulus draw for phase 0.000010, at 21.300723'
p114
aS'trial 3 phase 4 started at 24.2561950684'
p115
aa(lp116
S'trial 4 started at 24.345705986'
p117
aS'trial 4 phase 1 started at 24.3457140923'
p118
aS'trial 4 phase 2 started at 24.345719099'
p119
aS'trial 4 phase 3 started at 25.3571119308'
p120
aS'stimulus draw for phase 0.000010, at 25.402442'
p121
aS'trial 4 phase 4 started at 28.3585691452'
p122
aa(lp123
S'trial 5 started at 28.4478089809'
p124
aS'trial 5 phase 1 started at 28.4478170872'
p125
aS'trial 5 phase 2 started at 28.447822094'
p126
aS'trial 5 phase 3 started at 29.4587631226'
p127
aS'stimulus draw for phase 0.000010, at 29.505223'
p128
aS'trial 5 phase 4 started at 32.5038080215'
p129
aa(lp130
S'trial 6 started at 32.6033530235'
p131
aS'trial 6 phase 1 started at 32.6033620834'
p132
aS'trial 6 phase 2 started at 32.6033670902'
p133
a(lp134
I-99
aF0.10852503776550293
aaS'trial 6 event escape at 32.7119109631'
p135
aas.