(dp0
S'parameterArray'
p1
(lp2
(dp3
S'num_elements'
p4
I2000
sS'baseline_color_for_task'
p5
F0.75
sS'task'
p6
S'yes_color_yes_speed'
p7
sS'orientation'
p8
cnumpy.core.multiarray
scalar
p9
(cnumpy
dtype
p10
(S'f8'
p11
I0
I1
tp12
Rp13
(I3
S'<'
p14
NNNI-1
I-1
I0
tp15
bS'\xd2!3\x7f|\xd9\x12@'
p16
tp17
Rp18
sS'element_size'
p19
F45.0
sS'task_index'
p20
g9
(g10
(S'i8'
p21
I0
I1
tp22
Rp23
(I3
S'<'
p24
NNNI-1
I-1
I0
tp25
bS'\x03\x00\x00\x00\x00\x00\x00\x00'
p26
tp27
Rp28
sS'period'
p29
F36.0
sS'mapper_period'
p30
F3.0
sS'bar_width_ratio'
p31
F0.1
sS'refresh_frequency_mapper'
p32
F0.3333333333333333
sS'baseline_speed_for_task'
p33
F5.0
sS'element_spatial_frequency'
p34
F2.0
sS'stim_size'
p35
F0.66667
sS'task_rate'
p36
F1.0
sS'refresh_frequency'
p37
F2.0
sasS'eventArray'
p38
(lp39
(lp40
S'trial 0 started at 2.32693696022'
p41
a(lp42
I99
aF0.4684460163116455
aaS'trial 0 phase 1 started at 2.79538798332'
p43
aS'trial 0 event t at 2.79540395737'
p44
aS'trial 0 phase 2 started at 7.78591609001'
p45
aS'trial 0 phase 3 started at 8.78669095039'
p46
aS'stimulus draw for phase 0.000010, at 8.836182'
p47
a(lp48
I-99
aF8.637607097625732
aaS'trial 0 event escape at 10.9645779133'
p49
aas.