(dp0
S'parameterArray'
p1
(lp2
(dp3
S'num_elements'
p4
I2000
sS'baseline_color_for_task'
p5
F0.75
sS'task'
p6
S'no_color_no_speed'
p7
sS'orientation'
p8
cnumpy.core.multiarray
scalar
p9
(cnumpy
dtype
p10
(S'f8'
p11
I0
I1
tp12
Rp13
(I3
S'<'
p14
NNNI-1
I-1
I0
tp15
bS'\x18-DT\xfb!\t@'
p16
tp17
Rp18
sS'element_size'
p19
F45.0
sS'task_index'
p20
g9
(g10
(S'i8'
p21
I0
I1
tp22
Rp23
(I3
S'<'
p24
NNNI-1
I-1
I0
tp25
bS'\x00\x00\x00\x00\x00\x00\x00\x00'
p26
tp27
Rp28
sS'period'
p29
F36.0
sS'mapper_period'
p30
F3.0
sS'bar_width_ratio'
p31
F0.1
sS'refresh_frequency_mapper'
p32
F0.3333333333333333
sS'baseline_speed_for_task'
p33
F5.0
sS'element_spatial_frequency'
p34
F2.0
sS'stim_size'
p35
F0.66667
sS'task_rate'
p36
F1.0
sS'refresh_frequency'
p37
F2.0
sasS'eventArray'
p38
(lp39
(lp40
S'trial 0 started at 2.2797088623'
p41
a(lp42
I99
aF0.7966079711914062
aaS'trial 0 phase 1 started at 3.07632684708'
p43
aS'trial 0 event t at 3.07634091377'
p44
aS'trial 0 phase 2 started at 8.06613993645'
p45
aS'trial 0 phase 3 started at 9.081843853'
p46
a(lp47
I-99
aF9.524182081222534
aaS'trial 0 event escape at 11.803924799'
p48
aas.