(dp0
S'parameterArray'
p1
(lp2
(dp3
S'num_elements'
p4
I2000
sS'baseline_color_for_task'
p5
F0.75
sS'task'
p6
S'no_color_no_speed'
p7
sS'orientation'
p8
F0.0
sS'element_size'
p9
F45.0
sS'task_index'
p10
cnumpy.core.multiarray
scalar
p11
(cnumpy
dtype
p12
(S'i8'
p13
I0
I1
tp14
Rp15
(I3
S'<'
p16
NNNI-1
I-1
I0
tp17
bS'\x00\x00\x00\x00\x00\x00\x00\x00'
p18
tp19
Rp20
sS'period'
p21
F36.0
sS'task_rate'
p22
F1.0
sS'mapper_period'
p23
F3.0
sS'bar_width_ratio'
p24
F0.1
sS'baseline_speed_for_task'
p25
F5.0
sS'refresh_frequency'
p26
F2.0
sS'stim_size'
p27
F0.66667
sS'stimulus_repetitions'
p28
I10
sS'element_spatial_frequency'
p29
F2.0
sa(dp30
g4
I2000
sg5
F0.75
sg6
S'yes_color_yes_speed'
p31
sg8
F0.0
sg9
F45.0
sg10
g11
(g15
S'\x03\x00\x00\x00\x00\x00\x00\x00'
p32
tp33
Rp34
sg21
F36.0
sg22
F1.0
sg23
F3.0
sg24
F0.1
sg25
F5.0
sg26
F2.0
sg27
F0.66667
sg28
I10
sg29
F2.0
sasS'eventArray'
p35
(lp36
(lp37
S'trial 0 started at 2.21400213242'
p38
aS'trial 0 event return at 2.21508312225'
p39
a(lp40
I99
aF0.5962820053100586
aaS'trial 0 phase 1 started at 2.81029105186'
p41
aS'trial 0 event t at 2.81030511856'
p42
aS'fix signal -1 at 4.425201 '
p43
aS'staircase updated from 0.120000 after response 1 at 5.393414'
p44
aS'trial 0 key: z at time: 5.39344716072'
p45
aS'trial 0 event z at 5.39345598221'
p46
aS'fix signal 1 at 6.859067 '
p47
aS'staircase updated from 0.109960 after response 1 at 7.678185'
p48
aS'trial 0 key: m at time: 7.67821717262'
p49
aS'trial 0 event m at 7.67822599411'
p50
aS'trial 0 phase 2 started at 7.80917000771'
p51
aS'trial 0 phase 3 started at 8.81010699272'
p52
aS'stimulus draw for phase 0.000009, at 8.858695'
p53
aS'fix signal -1 at 9.304824 '
p54
aS'staircase updated from 0.100667 after response 1 at 9.927456'
p55
aS'trial 0 key: z at time: 9.92748713493'
p56
aS'trial 0 event z at 9.92749619484'
p57
aS'trial 0 phase 4 started at 11.8228161335'
p58
aa(lp59
S'trial 1 started at 11.9122531414'
p60
aS'fix signal 1 at 14.129472 '
p61
aS'staircase updated from 0.091917 after response 1 at 15.031876'
p62
aS'trial 1 key: m at time: 15.0319080353'
p63
aS'trial 1 event m at 15.0319180489'
p64
a(lp65
I-99
aF4.035598993301392
aaS'trial 1 event escape at 15.9478859901'
p66
aas.