(dp0
S'parameterArray'
p1
(lp2
(dp3
S'num_elements'
p4
I2000
sS'baseline_color_for_task'
p5
F0.75
sS'orientation'
p6
cnumpy.core.multiarray
scalar
p7
(cnumpy
dtype
p8
(S'f8'
p9
I0
I1
tp10
Rp11
(I3
S'<'
p12
NNNI-1
I-1
I0
tp13
bS'\x18-DT\xfb!\t@'
p14
tp15
Rp16
sS'element_size'
p17
F45.0
sS'task_index'
p18
g7
(g8
(S'i8'
p19
I0
I1
tp20
Rp21
(I3
S'<'
p22
NNNI-1
I-1
I0
tp23
bS'\x03\x00\x00\x00\x00\x00\x00\x00'
p24
tp25
Rp26
sS'period'
p27
F36.0
sS'mapper_period'
p28
F3.0
sS'bar_width_ratio'
p29
F0.125
sS'baseline_speed_for_task'
p30
F5.0
sS'unique_task'
p31
S'yes_color_yes_speed'
p32
sS'element_spatial_frequency'
p33
F2.0
sS'stim_size'
p34
F0.66667
sS'task_rate'
p35
F3.0
sS'refresh_frequency'
p36
F2.0
sa(dp37
g4
I2000
sg5
F0.75
sg6
g7
(g11
S'\xd2!3\x7f|\xd9\x12@'
p38
tp39
Rp40
sg17
F45.0
sg18
g7
(g21
S'\x01\x00\x00\x00\x00\x00\x00\x00'
p41
tp42
Rp43
sg27
F36.0
sg28
F3.0
sg29
F0.125
sg30
F5.0
sg31
S'yes_color_no_speed'
p44
sg33
F2.0
sg34
F0.66667
sg35
F3.0
sg36
F2.0
sa(dp45
g4
I2000
sg5
F0.75
sg6
g7
(g11
S'\x00\x00\x00\x00\x00\x00\x00\x00'
p46
tp47
Rp48
sg17
F45.0
sg18
g7
(g21
S'\x02\x00\x00\x00\x00\x00\x00\x00'
p49
tp50
Rp51
sg27
F36.0
sg28
F3.0
sg29
F0.125
sg30
F5.0
sg31
S'no_color_yes_speed'
p52
sg33
F2.0
sg34
F0.66667
sg35
F3.0
sg36
F2.0
sasS'eventArray'
p53
(lp54
(lp55
S'trial 0 started at 2.28764510155'
p56
a(lp57
I99
aF0.009331941604614258
aaS'trial 0 phase 1 started at 2.29698395729'
p58
aS'trial 0 event t at 2.29699516296'
p59
a(lp60
I99
aF0.009351015090942383
aaS'trial 0 event t at 2.29699897766'
p61
a(lp62
I99
aF0.48788905143737793
aaS'trial 0 event t at 2.77554702759'
p63
aS'trial 0 phase 2 started at 7.2923810482'
p64
aS'trial 0 phase 3 started at 8.29280304909'
p65
aS'stimulus draw for phase 0.000010, at 8.331493'
p66
aS'stimulus draw for phase 0.166779, at 8.830853'
p67
aS'stimulus draw for phase 0.337091, at 9.342320'
p68
aS'stimulus draw for phase 0.502499, at 9.838081'
p69
aS'stimulus draw for phase 0.668210, at 10.335168'
p70
aS'stimulus draw for phase 0.846298, at 10.870202'
p71
aS'trial 0 phase 4 started at 11.3379580975'
p72
aa(lp73
S'trial 1 started at 11.4098379612'
p74
aS'trial 1 phase 1 started at 11.4098460674'
p75
aS'trial 1 phase 2 started at 11.4098501205'
p76
aS'trial 1 phase 3 started at 12.4111471176'
p77
aS'stimulus draw for phase 0.000010, at 12.449752'
p78
aS'stimulus draw for phase 0.177804, at 12.982551'
p79
aS'stimulus draw for phase 0.346114, at 13.486778'
p80
aS'stimulus draw for phase 0.511183, at 13.982586'
p81
aS'stimulus draw for phase 0.674581, at 14.472674'
p82
aS'stimulus draw for phase 0.839606, at 14.968253'
p83
aS'trial 1 phase 4 started at 15.432060957'
p84
aa(lp85
S'trial 2 started at 15.515884161'
p86
aS'trial 2 phase 1 started at 15.5158920288'
p87
aS'trial 2 phase 2 started at 15.5158970356'
p88
aS'trial 2 phase 3 started at 16.530591011'
p89
aS'stimulus draw for phase 0.000010, at 16.569615'
p90
aS'stimulus draw for phase 0.181439, at 17.113547'
p91
aS'stimulus draw for phase 0.341802, at 17.602016'
p92
a(lp93
I-99
aF2.3697659969329834
aaS'trial 2 event escape at 17.885682106'
p94
aas.