(dp0
S'parameterArray'
p1
(lp2
(dp3
S'num_elements'
p4
I2000
sS'baseline_color_for_task'
p5
F0.75
sS'task'
p6
S'yes_color_no_speed'
p7
sS'orientation'
p8
cnumpy.core.multiarray
scalar
p9
(cnumpy
dtype
p10
(S'f8'
p11
I0
I1
tp12
Rp13
(I3
S'<'
p14
NNNI-1
I-1
I0
tp15
bS'\xd2!3\x7f|\xd9\x12@'
p16
tp17
Rp18
sS'element_size'
p19
F45.0
sS'task_index'
p20
g9
(g10
(S'i8'
p21
I0
I1
tp22
Rp23
(I3
S'<'
p24
NNNI-1
I-1
I0
tp25
bS'\x01\x00\x00\x00\x00\x00\x00\x00'
p26
tp27
Rp28
sS'period'
p29
F36.0
sS'mapper_period'
p30
F3.0
sS'bar_width_ratio'
p31
F0.125
sS'baseline_speed_for_task'
p32
F5.0
sS'element_spatial_frequency'
p33
F2.0
sS'stim_size'
p34
F0.66667
sS'task_rate'
p35
F3.0
sS'refresh_frequency'
p36
F2.0
sa(dp37
g4
I2000
sg5
F0.75
sg6
S'no_color_no_speed'
p38
sg8
g9
(g13
S'\x18-DT\xfb!\xe9?'
p39
tp40
Rp41
sg19
F45.0
sg20
g9
(g23
S'\x00\x00\x00\x00\x00\x00\x00\x00'
p42
tp43
Rp44
sg29
F36.0
sg30
F3.0
sg31
F0.125
sg32
F5.0
sg33
F2.0
sg34
F0.66667
sg35
F3.0
sg36
F2.0
sa(dp45
g4
I2000
sg5
F0.75
sg6
g7
sg8
g9
(g13
S'\x18-DT\xfb!\t@'
p46
tp47
Rp48
sg19
F45.0
sg20
g9
(g23
S'\x01\x00\x00\x00\x00\x00\x00\x00'
p49
tp50
Rp51
sg29
F36.0
sg30
F3.0
sg31
F0.125
sg32
F5.0
sg33
F2.0
sg34
F0.66667
sg35
F3.0
sg36
F2.0
sa(dp52
g4
I2000
sg5
F0.75
sg6
g38
sg8
g9
(g13
S'\x18-DT\xfb!\t@'
p53
tp54
Rp55
sg19
F45.0
sg20
g9
(g23
S'\x00\x00\x00\x00\x00\x00\x00\x00'
p56
tp57
Rp58
sg29
F36.0
sg30
F3.0
sg31
F0.125
sg32
F5.0
sg33
F2.0
sg34
F0.66667
sg35
F3.0
sg36
F2.0
sa(dp59
g4
I2000
sg5
F0.75
sg6
S'yes_color_yes_speed'
p60
sg8
g9
(g13
S'\x18-DT\xfb!\t@'
p61
tp62
Rp63
sg19
F45.0
sg20
g9
(g23
S'\x03\x00\x00\x00\x00\x00\x00\x00'
p64
tp65
Rp66
sg29
F36.0
sg30
F3.0
sg31
F0.125
sg32
F5.0
sg33
F2.0
sg34
F0.66667
sg35
F3.0
sg36
F2.0
sa(dp67
g4
I2000
sg5
F0.75
sg6
g7
sg8
g9
(g13
S'u\xa7\xbb\xe9\xbb\xfd\x15@'
p68
tp69
Rp70
sg19
F45.0
sg20
g9
(g23
S'\x01\x00\x00\x00\x00\x00\x00\x00'
p71
tp72
Rp73
sg29
F36.0
sg30
F3.0
sg31
F0.125
sg32
F5.0
sg33
F2.0
sg34
F0.66667
sg35
F3.0
sg36
F2.0
sa(dp74
g4
I2000
sg5
F0.75
sg6
g60
sg8
g9
(g13
S'\xd2!3\x7f|\xd9\x02@'
p75
tp76
Rp77
sg19
F45.0
sg20
g9
(g23
S'\x03\x00\x00\x00\x00\x00\x00\x00'
p78
tp79
Rp80
sg29
F36.0
sg30
F3.0
sg31
F0.125
sg32
F5.0
sg33
F2.0
sg34
F0.66667
sg35
F3.0
sg36
F2.0
sa(dp81
g4
I2000
sg5
F0.75
sg6
g60
sg8
g9
(g13
S'\x18-DT\xfb!\xf9?'
p82
tp83
Rp84
sg19
F45.0
sg20
g9
(g23
S'\x03\x00\x00\x00\x00\x00\x00\x00'
p85
tp86
Rp87
sg29
F36.0
sg30
F3.0
sg31
F0.125
sg32
F5.0
sg33
F2.0
sg34
F0.66667
sg35
F3.0
sg36
F2.0
sa(dp88
g4
I2000
sg5
F0.75
sg6
g38
sg8
g9
(g13
S'\xd2!3\x7f|\xd9\x02@'
p89
tp90
Rp91
sg19
F45.0
sg20
g9
(g23
S'\x00\x00\x00\x00\x00\x00\x00\x00'
p92
tp93
Rp94
sg29
F36.0
sg30
F3.0
sg31
F0.125
sg32
F5.0
sg33
F2.0
sg34
F0.66667
sg35
F3.0
sg36
F2.0
sasS'eventArray'
p95
(lp96
(lp97
S'trial 0 started at 2.07147407532'
p98
a(lp99
I99
aF1.1153829097747803
aaS'trial 0 phase 1 started at 3.18686199188'
p100
aS'trial 0 event t at 3.18688106537'
p101
aS'trial 0 phase 2 started at 8.1772351265'
p102
aS'trial 0 phase 3 started at 9.17816209793'
p103
aS'stimulus draw for phase 0.000010, at 9.216300'
p104
aS'stimulus draw for phase 0.169215, at 9.723194'
p105
aS'stimulus draw for phase 0.347732, at 10.259367'
p106
aS'stimulus draw for phase 0.502295, at 10.736158'
p107
aS'stimulus draw for phase 0.669311, at 11.233438'
p108
aS'stimulus draw for phase 0.834401, at 11.734012'
p109
aS'trial 0 phase 4 started at 12.1802990437'
p110
aa(lp111
S'trial 1 started at 12.2618300915'
p112
aS'trial 1 phase 1 started at 12.2618381977'
p113
aS'trial 1 phase 2 started at 12.2618432045'
p114
aS'trial 1 phase 3 started at 13.2623720169'
p115
aS'stimulus draw for phase 0.000010, at 13.299811'
p116
aS'stimulus draw for phase 0.181874, at 13.845451'
p117
aS'stimulus draw for phase 0.334224, at 14.302608'
p118
aS'stimulus draw for phase 0.513620, at 14.840743'
p119
aS'stimulus draw for phase 0.676651, at 15.329289'
p120
aS'stimulus draw for phase 0.839754, at 15.819197'
p121
aS'trial 1 phase 4 started at 16.3031890392'
p122
aa(lp123
S'trial 2 started at 16.3846290112'
p124
aS'trial 2 phase 1 started at 16.3846380711'
p125
aS'trial 2 phase 2 started at 16.3846430779'
p126
aS'trial 2 phase 3 started at 17.398045063'
p127
aS'stimulus draw for phase 0.000010, at 17.435669'
p128
aS'stimulus draw for phase 0.183533, at 17.997259'
p129
aS'stimulus draw for phase 0.339457, at 18.454022'
p130
aS'stimulus draw for phase 0.511253, at 18.968950'
p131
aS'stimulus draw for phase 0.682312, at 19.492793'
p132
aS'stimulus draw for phase 0.841957, at 19.961592'
p133
aS'trial 2 phase 4 started at 20.4210300446'
p134
aa(lp135
S'trial 3 started at 20.4986071587'
p136
aS'trial 3 phase 1 started at 20.4986150265'
p137
aS'trial 3 phase 2 started at 20.4986190796'
p138
aS'trial 3 phase 3 started at 21.5008511543'
p139
aS'stimulus draw for phase 0.000010, at 21.538726'
p140
aS'stimulus draw for phase 0.174645, at 22.062297'
p141
aS'stimulus draw for phase 0.338635, at 22.554304'
p142
aS'stimulus draw for phase 0.501689, at 23.043634'
p143
aS'stimulus draw for phase 0.672406, at 23.563309'
p144
aS'stimulus draw for phase 0.838142, at 24.052851'
p145
aS'trial 3 phase 4 started at 24.5324661732'
p146
aa(lp147
S'trial 4 started at 24.616366148'
p148
aS'trial 4 phase 1 started at 24.6163740158'
p149
aS'trial 4 phase 2 started at 24.6163790226'
p150
aS'trial 4 phase 3 started at 25.6186301708'
p151
aS'stimulus draw for phase 0.000010, at 25.655679'
p152
aS'stimulus draw for phase 0.180131, at 26.197027'
p153
aS'stimulus draw for phase 0.333846, at 26.657599'
p154
aS'stimulus draw for phase 0.513923, at 27.197748'
p155
aS'stimulus draw for phase 0.675605, at 27.683234'
p156
aS'stimulus draw for phase 0.834991, at 28.160665'
p157
aS'trial 4 phase 4 started at 28.6557371616'
p158
aa(lp159
S'trial 5 started at 28.7367169857'
p160
aS'trial 5 phase 1 started at 28.7367250919'
p161
aS'trial 5 phase 2 started at 28.7367291451'
p162
aS'trial 5 phase 3 started at 29.7371990681'
p163
aS'stimulus draw for phase 0.000010, at 29.775153'
p164
aS'stimulus draw for phase 0.182447, at 30.321680'
p165
aS'stimulus draw for phase 0.334074, at 30.777194'
p166
aS'stimulus draw for phase 0.513827, at 31.315688'
p167
aS'stimulus draw for phase 0.678209, at 31.809605'
p168
aS'stimulus draw for phase 0.841259, at 32.298731'
p169
aS'trial 5 phase 4 started at 32.7499630451'
p170
aa(lp171
S'trial 6 started at 32.8379120827'
p172
aS'trial 6 phase 1 started at 32.8379201889'
p173
aS'trial 6 phase 2 started at 32.8379251957'
p174
aS'trial 6 phase 3 started at 33.8389899731'
p175
aS'stimulus draw for phase 0.000010, at 33.875884'
p176
aS'stimulus draw for phase 0.180582, at 34.417864'
p177
aS'stimulus draw for phase 0.333933, at 34.882286'
p178
aS'stimulus draw for phase 0.502667, at 35.384125'
p179
aS'stimulus draw for phase 0.680714, at 35.918196'
p180
aS'stimulus draw for phase 0.846109, at 36.414253'
p181
aS'trial 6 phase 4 started at 36.8674750328'
p182
aa(lp183
S'trial 7 started at 36.9540190697'
p184
aS'trial 7 phase 1 started at 36.9540281296'
p185
aS'trial 7 phase 2 started at 36.9540321827'
p186
aS'trial 7 phase 3 started at 37.9574830532'
p187
aS'stimulus draw for phase 0.000010, at 37.994824'
p188
aS'stimulus draw for phase 0.182214, at 38.541279'
p189
aS'stimulus draw for phase 0.334259, at 38.997867'
p190
aS'stimulus draw for phase 0.513969, at 39.536439'
p191
aS'stimulus draw for phase 0.678687, at 40.030646'
p192
aS'stimulus draw for phase 0.841375, at 40.518840'
p193
aS'trial 7 phase 4 started at 40.9767670631'
p194
aa(lp195
S'trial 8 started at 41.0584621429'
p196
aS'trial 8 phase 1 started at 41.0584712029'
p197
aS'trial 8 phase 2 started at 41.0584762096'
p198
aS'trial 8 phase 3 started at 42.0593771935'
p199
aS'stimulus draw for phase 0.000010, at 42.096991'
p200
aS'stimulus draw for phase 0.180669, at 42.638983'
p201
aS'stimulus draw for phase 0.333664, at 43.101171'
p202
a(lp203
I-99
aF2.185818910598755
aaS'trial 8 event q at 43.2443161011'
p204
aas.