(dp0
S'parameterArray'
p1
(lp2
(dp3
S'num_elements'
p4
I2000
sS'baseline_color_for_task'
p5
F0.75
sS'orientation'
p6
cnumpy.core.multiarray
scalar
p7
(cnumpy
dtype
p8
(S'f8'
p9
I0
I1
tp10
Rp11
(I3
S'<'
p12
NNNI-1
I-1
I0
tp13
bS'\xd2!3\x7f|\xd9\x12@'
p14
tp15
Rp16
sS'element_size'
p17
F45.0
sS'task_index'
p18
g7
(g8
(S'i8'
p19
I0
I1
tp20
Rp21
(I3
S'<'
p22
NNNI-1
I-1
I0
tp23
bS'\x02\x00\x00\x00\x00\x00\x00\x00'
p24
tp25
Rp26
sS'period'
p27
F36.0
sS'mapper_period'
p28
F10.0
sS'bar_width_ratio'
p29
F0.125
sS'baseline_speed_for_task'
p30
F5.0
sS'unique_task'
p31
S'no_color_yes_speed'
p32
sS'element_spatial_frequency'
p33
F2.0
sS'stim_size'
p34
F0.66667
sS'task_rate'
p35
F3.0
sS'refresh_frequency'
p36
F2.0
sasS'eventArray'
p37
(lp38
(lp39
S'trial 0 started at 2.26951289177'
p40
a(lp41
I99
aF0.47403597831726074
aaS'trial 0 phase 1 started at 2.74355387688'
p42
aS'trial 0 event t at 2.7435708046'
p43
aS'trial 0 phase 2 started at 7.732172966'
p44
aS'trial 0 phase 3 started at 8.73313689232'
p45
aS'stimulus draw for phase 0.000001, at 8.770793'
p46
aS'stimulus draw for phase 0.050735, at 10.596445'
p47
aS'stimulus draw for phase 0.100737, at 12.396415'
p48
aS'stimulus draw for phase 0.150601, at 14.191660'
p49
aS'stimulus draw for phase 0.200744, at 15.996961'
p50
aS'stimulus draw for phase 0.251051, at 17.807873'
p51
aS'stimulus draw for phase 0.300134, at 19.574863'
p52
aS'stimulus draw for phase 0.350193, at 21.377028'
p53
aS'stimulus draw for phase 0.400279, at 23.180357'
p54
aS'stimulus draw for phase 0.450142, at 24.975361'
p55
aS'stimulus draw for phase 0.500423, at 26.785219'
p56
aS'trial 0 key: m at time: 27.8271279335'
p57
aS'trial 0 event m at 27.8271398544'
p58
aS'trial 0 key: z at time: 28.0517649651'
p59
aS'trial 0 event z at 28.051776886'
p60
aS'trial 0 key: m at time: 28.2790868282'
p61
aS'trial 0 event m at 28.2790989876'
p62
a(lp63
I99
aF26.28114104270935
aaS'trial 0 event t at 28.5506649017'
p64
aS'stimulus draw for phase 0.550424, at 28.586891'
p65
aS'stimulus draw for phase 0.600523, at 30.389108'
p66
a(lp67
I-99
aF29.475373029708862
aaS'trial 0 event q at 31.7449188232'
p68
aas.