(dp0
S'parameterArray'
p1
(lp2
(dp3
S'num_elements'
p4
I2000
sS'baseline_color_for_task'
p5
F0.75
sS'task'
p6
S'yes_color_no_speed'
p7
sS'orientation'
p8
cnumpy.core.multiarray
scalar
p9
(cnumpy
dtype
p10
(S'f8'
p11
I0
I1
tp12
Rp13
(I3
S'<'
p14
NNNI-1
I-1
I0
tp15
bS'u\xa7\xbb\xe9\xbb\xfd\x15@'
p16
tp17
Rp18
sS'element_size'
p19
F45.0
sS'task_index'
p20
g9
(g10
(S'i8'
p21
I0
I1
tp22
Rp23
(I3
S'<'
p24
NNNI-1
I-1
I0
tp25
bS'\x01\x00\x00\x00\x00\x00\x00\x00'
p26
tp27
Rp28
sS'period'
p29
F36.0
sS'mapper_period'
p30
F3.0
sS'bar_width_ratio'
p31
F0.1
sS'baseline_speed_for_task'
p32
F5.0
sS'element_spatial_frequency'
p33
F2.0
sS'stim_size'
p34
F0.66667
sS'task_rate'
p35
F1.0
sS'refresh_frequency'
p36
F2.0
sa(dp37
g4
I2000
sg5
F0.75
sg6
S'yes_color_yes_speed'
p38
sg8
g9
(g13
S'u\xa7\xbb\xe9\xbb\xfd\x15@'
p39
tp40
Rp41
sg19
F45.0
sg20
g9
(g23
S'\x03\x00\x00\x00\x00\x00\x00\x00'
p42
tp43
Rp44
sg29
F36.0
sg30
F3.0
sg31
F0.1
sg32
F5.0
sg33
F2.0
sg34
F0.66667
sg35
F1.0
sg36
F2.0
sa(dp45
g4
I2000
sg5
F0.75
sg6
S'fix_no_stim'
p46
sg8
g9
(g13
S'\xd2!3\x7f|\xd9\x02@'
p47
tp48
Rp49
sg19
F45.0
sg20
g9
(g23
S'\x04\x00\x00\x00\x00\x00\x00\x00'
p50
tp51
Rp52
sg29
F36.0
sg30
F3.0
sg31
F0.1
sg32
F5.0
sg33
F2.0
sg34
F0.66667
sg35
F1.0
sg36
F2.0
sa(dp53
g4
I2000
sg5
F0.75
sg6
S'no_color_no_speed'
p54
sg8
g9
(g13
S'\x18-DT\xfb!\xf9?'
p55
tp56
Rp57
sg19
F45.0
sg20
g9
(g23
S'\x00\x00\x00\x00\x00\x00\x00\x00'
p58
tp59
Rp60
sg29
F36.0
sg30
F3.0
sg31
F0.1
sg32
F5.0
sg33
F2.0
sg34
F0.66667
sg35
F1.0
sg36
F2.0
sa(dp61
g4
I2000
sg5
F0.75
sg6
g38
sg8
g9
(g13
S'\xd2!3\x7f|\xd9\x12@'
p62
tp63
Rp64
sg19
F45.0
sg20
g9
(g23
S'\x03\x00\x00\x00\x00\x00\x00\x00'
p65
tp66
Rp67
sg29
F36.0
sg30
F3.0
sg31
F0.1
sg32
F5.0
sg33
F2.0
sg34
F0.66667
sg35
F1.0
sg36
F2.0
sa(dp68
g4
I2000
sg5
F0.75
sg6
S'no_color_yes_speed'
p69
sg8
g9
(g13
S'\x18-DT\xfb!\xe9?'
p70
tp71
Rp72
sg19
F45.0
sg20
g9
(g23
S'\x02\x00\x00\x00\x00\x00\x00\x00'
p73
tp74
Rp75
sg29
F36.0
sg30
F3.0
sg31
F0.1
sg32
F5.0
sg33
F2.0
sg34
F0.66667
sg35
F1.0
sg36
F2.0
sa(dp76
g4
I2000
sg5
F0.75
sg6
g7
sg8
g9
(g13
S'\x18-DT\xfb!\xe9?'
p77
tp78
Rp79
sg19
F45.0
sg20
g9
(g23
S'\x01\x00\x00\x00\x00\x00\x00\x00'
p80
tp81
Rp82
sg29
F36.0
sg30
F3.0
sg31
F0.1
sg32
F5.0
sg33
F2.0
sg34
F0.66667
sg35
F1.0
sg36
F2.0
sasS'eventArray'
p83
(lp84
(lp85
S'trial 0 started at 2.13327598572'
p86
a(lp87
I99
aF0.7316949367523193
aaS'trial 0 phase 1 started at 2.86497592926'
p88
aS'trial 0 event t at 2.86499500275'
p89
aS'fix signal -1 at 4.920470 '
p90
aS'fix signal 1 at 7.638974 '
p91
aS'trial 0 phase 2 started at 7.85464596748'
p92
aS'trial 0 phase 3 started at 8.85585999489'
p93
aS'stimulus draw for phase 0.000009, at 8.905148'
p94
aS'fix signal -1 at 9.715377 '
p95
aS'trial 0 phase 4 started at 11.8847420216'
p96
aa(lp97
S'trial 1 started at 11.9752368927'
p98
aS'trial 1 phase 1 started at 11.9752449989'
p99
aS'trial 1 phase 2 started at 11.9752500057'
p100
aS'trial 1 phase 3 started at 12.9904279709'
p101
aS'stimulus draw for phase 0.000009, at 13.036579'
p102
aS'fix signal 1 at 14.785142 '
p103
aS'trial 1 key: m at time: 15.6058559418'
p104
aS'trial 1 event m at 15.605866909'
p105
aS'trial 1 phase 4 started at 16.0182960033'
p106
aa(lp107
S'trial 2 started at 16.1097579002'
p108
aS'trial 2 phase 1 started at 16.1097660065'
p109
aS'trial 2 phase 2 started at 16.1097698212'
p110
aS'trial 2 phase 3 started at 17.1255760193'
p111
aS'stimulus draw for phase 0.000009, at 17.171936'
p112
aS'fix signal -1 at 18.894564 '
p113
aS'trial 2 key: z at time: 19.8791949749'
p114
aS'trial 2 event z at 19.8792068958'
p115
aS'trial 2 phase 4 started at 20.1267249584'
p116
aa(lp117
S'trial 3 started at 20.2114930153'
p118
aS'trial 3 phase 1 started at 20.2115008831'
p119
aS'trial 3 phase 2 started at 20.2115058899'
p120
aS'trial 3 phase 3 started at 21.2278130054'
p121
aS'stimulus draw for phase 0.000009, at 21.274012'
p122
aS'fix signal 1 at 22.984747 '
p123
aS'trial 3 key: m at time: 23.8875789642'
p124
aS'trial 3 event m at 23.8875899315'
p125
aS'trial 3 phase 4 started at 24.2491958141'
p126
aa(lp127
S'trial 4 started at 24.338654995'
p128
aS'trial 4 phase 1 started at 24.3386638165'
p129
aS'trial 4 phase 2 started at 24.3386688232'
p130
aS'trial 4 phase 3 started at 25.3457038403'
p131
aS'stimulus draw for phase 0.000009, at 25.391088'
p132
aS'fix signal 1 at 27.149274 '
p133
aS'trial 4 key: m at time: 27.8526329994'
p134
aS'trial 4 event m at 27.8526449203'
p135
aS'trial 4 phase 4 started at 28.3644828796'
p136
aa(lp137
S'trial 5 started at 28.4502859116'
p138
aS'trial 5 phase 1 started at 28.4502949715'
p139
aS'trial 5 phase 2 started at 28.4502999783'
p140
aS'trial 5 phase 3 started at 29.4643838406'
p141
aS'stimulus draw for phase 0.000009, at 29.511055'
p142
aS'fix signal -1 at 31.247498 '
p143
aS'trial 5 key: z at time: 32.3175280094'
p144
aS'trial 5 event z at 32.3175399303'
p145
aS'trial 5 phase 4 started at 32.4817299843'
p146
aa(lp147
S'trial 6 started at 32.5727608204'
p148
aS'trial 6 phase 1 started at 32.5727689266'
p149
aS'trial 6 phase 2 started at 32.5727739334'
p150
a(lp151
I-99
aF0.6458749771118164
aaS'trial 6 event escape at 33.2186698914'
p152
aas.