(dp0
S'parameterArray'
p1
(lp2
(dp3
S'num_elements'
p4
cnumpy.core.multiarray
scalar
p5
(cnumpy
dtype
p6
(S'f8'
p7
I0
I1
tp8
Rp9
(I3
S'<'
p10
NNNI-1
I-1
I0
tp11
bS'\x00\x00\x00\x00\x00@\x9f@'
p12
tp13
Rp14
sS'orientation'
p15
g5
(g9
S'\x18-DT\xfb!\t@'
p16
tp17
Rp18
sS'element_size'
p19
F45.0
sS'task_index'
p20
g5
(g6
(S'i8'
p21
I0
I1
tp22
Rp23
(I3
S'<'
p24
NNNI-1
I-1
I0
tp25
bS'\x05\x00\x00\x00\x00\x00\x00\x00'
p26
tp27
Rp28
sS'period'
p29
F36.0
sS'baseline_color_for_task'
p30
F0.75
sS'bar_width_ratio'
p31
F0.08333375
sS'baseline_speed_for_task'
p32
F5.0
sS'unique_task'
p33
I2
sS'refresh_frequency'
p34
F2.0
sS'stim_size'
p35
F0.66667
sS'task_rate'
p36
F3.0
sS'element_spatial_frequency'
p37
F2.0
sa(dp38
g4
g5
(g9
S'\x00\x00\x00\x00\x00@\x9f@'
p39
tp40
Rp41
sg15
g5
(g9
S'\x00\x00\x00\x00\x00\x00\x00\x00'
p42
tp43
Rp44
sg19
F45.0
sg20
g5
(g23
S'\x04\x00\x00\x00\x00\x00\x00\x00'
p45
tp46
Rp47
sg29
F36.0
sg30
F0.75
sg31
F0.08333375
sg32
F5.0
sg33
I2
sg34
F2.0
sg35
F0.66667
sg36
F3.0
sg37
F2.0
sa(dp48
g4
g5
(g9
S'\x00\x00\x00\x00\x00@\x9f@'
p49
tp50
Rp51
sg15
g5
(g9
S'^8U)zj\x0f@'
p52
tp53
Rp54
sg19
F45.0
sg20
g5
(g23
S'\x03\x00\x00\x00\x00\x00\x00\x00'
p55
tp56
Rp57
sg29
F36.0
sg30
F0.75
sg31
F0.08333375
sg32
F5.0
sg33
I1
sg34
F2.0
sg35
F0.66667
sg36
F3.0
sg37
F2.0
sa(dp58
g4
g5
(g9
S'\x00\x00\x00\x00\x00@\x9f@'
p59
tp60
Rp61
sg15
g5
(g9
S'^8U)zj\x0f@'
p62
tp63
Rp64
sg19
F45.0
sg20
g5
(g23
S'\x05\x00\x00\x00\x00\x00\x00\x00'
p65
tp66
Rp67
sg29
F36.0
sg30
F0.75
sg31
F0.08333375
sg32
F5.0
sg33
I2
sg34
F2.0
sg35
F0.66667
sg36
F3.0
sg37
F2.0
sa(dp68
g4
g5
(g9
S'\x00\x00\x00\x00\x00@\x9f@'
p69
tp70
Rp71
sg15
g5
(g9
S'\xd2!3\x7f|\xd9\x02@'
p72
tp73
Rp74
sg19
F45.0
sg20
g5
(g23
S'\x02\x00\x00\x00\x00\x00\x00\x00'
p75
tp76
Rp77
sg29
F36.0
sg30
F0.75
sg31
F0.08333375
sg32
F5.0
sg33
I0
sg34
F2.0
sg35
F0.66667
sg36
F3.0
sg37
F2.0
sa(dp78
g4
g5
(g9
S'\x00\x00\x00\x00\x00@\x9f@'
p79
tp80
Rp81
sg15
g5
(g9
S'\x18-DT\xfb!\xe9?'
p82
tp83
Rp84
sg19
F45.0
sg20
g5
(g23
S'\x00\x00\x00\x00\x00\x00\x00\x00'
p85
tp86
Rp87
sg29
F36.0
sg30
F0.75
sg31
F0.08333375
sg32
F5.0
sg33
I0
sg34
F2.0
sg35
F0.66667
sg36
F3.0
sg37
F2.0
sa(dp88
g4
g5
(g9
S'\x00\x00\x00\x00\x00@\x9f@'
p89
tp90
Rp91
sg15
g5
(g9
S'\xd2!3\x7f|\xd9\x12@'
p92
tp93
Rp94
sg19
F45.0
sg20
g5
(g23
S'\x00\x00\x00\x00\x00\x00\x00\x00'
p95
tp96
Rp97
sg29
F36.0
sg30
F0.75
sg31
F0.08333375
sg32
F5.0
sg33
I0
sg34
F2.0
sg35
F0.66667
sg36
F3.0
sg37
F2.0
sa(dp98
g4
g5
(g9
S'\x00\x00\x00\x00\x00@\x9f@'
p99
tp100
Rp101
sg15
g5
(g9
S'u\xa7\xbb\xe9\xbb\xfd\x15@'
p102
tp103
Rp104
sg19
F45.0
sg20
g5
(g23
S'\x02\x00\x00\x00\x00\x00\x00\x00'
p105
tp106
Rp107
sg29
F36.0
sg30
F0.75
sg31
F0.08333375
sg32
F5.0
sg33
I0
sg34
F2.0
sg35
F0.66667
sg36
F3.0
sg37
F2.0
sa(dp108
g4
g5
(g9
S'\x00\x00\x00\x00\x00@\x9f@'
p109
tp110
Rp111
sg15
g5
(g9
S'\x18-DT\xfb!\t@'
p112
tp113
Rp114
sg19
F45.0
sg20
g5
(g23
S'\x04\x00\x00\x00\x00\x00\x00\x00'
p115
tp116
Rp117
sg29
F36.0
sg30
F0.75
sg31
F0.08333375
sg32
F5.0
sg33
I2
sg34
F2.0
sg35
F0.66667
sg36
F3.0
sg37
F2.0
sa(dp118
g4
g5
(g9
S'\x00\x00\x00\x00\x00@\x9f@'
p119
tp120
Rp121
sg15
g5
(g9
S'\x18-DT\xfb!\xe9?'
p122
tp123
Rp124
sg19
F45.0
sg20
g5
(g23
S'\x04\x00\x00\x00\x00\x00\x00\x00'
p125
tp126
Rp127
sg29
F36.0
sg30
F0.75
sg31
F0.08333375
sg32
F5.0
sg33
I2
sg34
F2.0
sg35
F0.66667
sg36
F3.0
sg37
F2.0
sa(dp128
g4
g5
(g9
S'\x00\x00\x00\x00\x00@\x9f@'
p129
tp130
Rp131
sg15
g5
(g9
S'u\xa7\xbb\xe9\xbb\xfd\x15@'
p132
tp133
Rp134
sg19
F45.0
sg20
g5
(g23
S'\x00\x00\x00\x00\x00\x00\x00\x00'
p135
tp136
Rp137
sg29
F36.0
sg30
F0.75
sg31
F0.08333375
sg32
F5.0
sg33
I0
sg34
F2.0
sg35
F0.66667
sg36
F3.0
sg37
F2.0
sa(dp138
g4
g5
(g9
S'\x00\x00\x00\x00\x00@\x9f@'
p139
tp140
Rp141
sg15
g5
(g9
S'\x18-DT\xfb!\t@'
p142
tp143
Rp144
sg19
F45.0
sg20
g5
(g23
S'\x06\x00\x00\x00\x00\x00\x00\x00'
p145
tp146
Rp147
sg29
F36.0
sg30
F0.75
sg31
F0.08333375
sg32
F5.0
sg33
I2
sg34
F2.0
sg35
F0.66667
sg36
F3.0
sg37
F2.0
sa(dp148
g4
g5
(g9
S'\x00\x00\x00\x00\x00@\x9f@'
p149
tp150
Rp151
sg15
g5
(g9
S'\x18-DT\xfb!\xf9?'
p152
tp153
Rp154
sg19
F45.0
sg20
g5
(g23
S'\x03\x00\x00\x00\x00\x00\x00\x00'
p155
tp156
Rp157
sg29
F36.0
sg30
F0.75
sg31
F0.08333375
sg32
F5.0
sg33
I1
sg34
F2.0
sg35
F0.66667
sg36
F3.0
sg37
F2.0
sa(dp158
g4
g5
(g9
S'\x00\x00\x00\x00\x00@\x9f@'
p159
tp160
Rp161
sg15
g5
(g9
S'^8U)zj\x0f@'
p162
tp163
Rp164
sg19
F45.0
sg20
g5
(g23
S'\x01\x00\x00\x00\x00\x00\x00\x00'
p165
tp166
Rp167
sg29
F36.0
sg30
F0.75
sg31
F0.08333375
sg32
F5.0
sg33
I1
sg34
F2.0
sg35
F0.66667
sg36
F3.0
sg37
F2.0
sa(dp168
g4
g5
(g9
S'\x00\x00\x00\x00\x00@\x9f@'
p169
tp170
Rp171
sg15
g5
(g9
S'\x18-DT\xfb!\xf9?'
p172
tp173
Rp174
sg19
F45.0
sg20
g5
(g23
S'\x00\x00\x00\x00\x00\x00\x00\x00'
p175
tp176
Rp177
sg29
F36.0
sg30
F0.75
sg31
F0.08333375
sg32
F5.0
sg33
I0
sg34
F2.0
sg35
F0.66667
sg36
F3.0
sg37
F2.0
sa(dp178
g4
g5
(g9
S'\x00\x00\x00\x00\x00@\x9f@'
p179
tp180
Rp181
sg15
g5
(g9
S'\x18-DT\xfb!\xe9?'
p182
tp183
Rp184
sg19
F45.0
sg20
g5
(g23
S'\x06\x00\x00\x00\x00\x00\x00\x00'
p185
tp186
Rp187
sg29
F36.0
sg30
F0.75
sg31
F0.08333375
sg32
F5.0
sg33
I2
sg34
F2.0
sg35
F0.66667
sg36
F3.0
sg37
F2.0
sa(dp188
g4
g5
(g9
S'\x00\x00\x00\x00\x00@\x9f@'
p189
tp190
Rp191
sg15
g5
(g9
S'\xd2!3\x7f|\xd9\x12@'
p192
tp193
Rp194
sg19
F45.0
sg20
g5
(g23
S'\x01\x00\x00\x00\x00\x00\x00\x00'
p195
tp196
Rp197
sg29
F36.0
sg30
F0.75
sg31
F0.08333375
sg32
F5.0
sg33
I1
sg34
F2.0
sg35
F0.66667
sg36
F3.0
sg37
F2.0
sa(dp198
g4
g5
(g9
S'\x00\x00\x00\x00\x00@\x9f@'
p199
tp200
Rp201
sg15
g5
(g9
S'\x18-DT\xfb!\t@'
p202
tp203
Rp204
sg19
F45.0
sg20
g5
(g23
S'\x01\x00\x00\x00\x00\x00\x00\x00'
p205
tp206
Rp207
sg29
F36.0
sg30
F0.75
sg31
F0.08333375
sg32
F5.0
sg33
I1
sg34
F2.0
sg35
F0.66667
sg36
F3.0
sg37
F2.0
sa(dp208
g4
g5
(g9
S'\x00\x00\x00\x00\x00@\x9f@'
p209
tp210
Rp211
sg15
g5
(g9
S'^8U)zj\x0f@'
p212
tp213
Rp214
sg19
F45.0
sg20
g5
(g23
S'\x00\x00\x00\x00\x00\x00\x00\x00'
p215
tp216
Rp217
sg29
F36.0
sg30
F0.75
sg31
F0.08333375
sg32
F5.0
sg33
I0
sg34
F2.0
sg35
F0.66667
sg36
F3.0
sg37
F2.0
sa(dp218
g4
g5
(g9
S'\x00\x00\x00\x00\x00@\x9f@'
p219
tp220
Rp221
sg15
g5
(g9
S'u\xa7\xbb\xe9\xbb\xfd\x15@'
p222
tp223
Rp224
sg19
F45.0
sg20
g5
(g23
S'\x05\x00\x00\x00\x00\x00\x00\x00'
p225
tp226
Rp227
sg29
F36.0
sg30
F0.75
sg31
F0.08333375
sg32
F5.0
sg33
I2
sg34
F2.0
sg35
F0.66667
sg36
F3.0
sg37
F2.0
sa(dp228
g4
g5
(g9
S'\x00\x00\x00\x00\x00@\x9f@'
p229
tp230
Rp231
sg15
g5
(g9
S'u\xa7\xbb\xe9\xbb\xfd\x15@'
p232
tp233
Rp234
sg19
F45.0
sg20
g5
(g23
S'\x04\x00\x00\x00\x00\x00\x00\x00'
p235
tp236
Rp237
sg29
F36.0
sg30
F0.75
sg31
F0.08333375
sg32
F5.0
sg33
I2
sg34
F2.0
sg35
F0.66667
sg36
F3.0
sg37
F2.0
sa(dp238
g4
g5
(g9
S'\x00\x00\x00\x00\x00@\x9f@'
p239
tp240
Rp241
sg15
g5
(g9
S'\xd2!3\x7f|\xd9\x12@'
p242
tp243
Rp244
sg19
F45.0
sg20
g5
(g23
S'\x06\x00\x00\x00\x00\x00\x00\x00'
p245
tp246
Rp247
sg29
F36.0
sg30
F0.75
sg31
F0.08333375
sg32
F5.0
sg33
I2
sg34
F2.0
sg35
F0.66667
sg36
F3.0
sg37
F2.0
sasS'eventArray'
p248
(lp249
(lp250
S'trial 0 started at 2.42946887016'
p251
a(lp252
I99
aF140.06969618797302
aaS'trial 0 phase 1 started at 142.499171972'
p253
aS'trial 0 key: t at time: 142.499181986'
p254
aS'trial 0 event t at 142.499187946'
p255
aS'trial 0 phase 2 started at 147.489613056'
p256
aS'trial 0 phase 3 started at 150.490833998'
p257
aS'stimulus draw for phase 0.000002, at 150.501376'
p258
aS'stimulus draw for phase 0.014361, at 151.018287'
p259
aS'stimulus draw for phase 0.027791, at 151.501784'
p260
aS'stimulus draw for phase 0.041672, at 152.001365'
p261
aS'signal in feature: Color ecc bin: 3 phase: 0.056 value: -0.242108 at 152.492515 '
p262
aS'stimulus draw for phase 0.055582, at 152.502451'
p263
aS'stimulus draw for phase 0.069476, at 153.002318'
p264
aS'signal in feature: Speed ecc bin: 3 phase: 0.083 value: 1.972144 at 153.492268 '
p265
aS'stimulus draw for phase 0.083358, at 153.502215'
p266
aS'stimulus draw for phase 0.097255, at 154.002392'
p267
aS'stimulus draw for phase 0.111164, at 154.503218'
p268
aS'stimulus draw for phase 0.125057, at 155.003343'
p269
aS'stimulus draw for phase 0.138954, at 155.503641'
p270
aS'stimulus draw for phase 0.152854, at 156.003632'
p271
aS'signal in feature: Speed ecc bin: 2 phase: 0.167 value: 1.972144 at 156.494326 '
p272
aS'stimulus draw for phase 0.166745, at 156.504287'
p273
aS'stimulus draw for phase 0.180639, at 157.004302'
p274
aS'stimulus draw for phase 0.194535, at 157.504581'
p275
aS'stimulus draw for phase 0.208430, at 158.004801'
p276
aS'signal in feature: Fix ecc bin: 2 phase: 0.222 value: -0.253436 at 158.495241 '
p277
aS'stimulus draw for phase 0.222325, at 158.506861'
p278
aS'stimulus draw for phase 0.236220, at 159.005249'
p279
aS'staircase Fix bin 2 updated from 0.253436 after response 1 at 159.378571'
p280
aS'trial 0 key: z at time: 159.378607035'
p281
aS'trial 0 event z at 159.378615856'
p282
aS'stimulus draw for phase 0.250117, at 159.505431'
p283
aS'stimulus draw for phase 0.264011, at 160.005677'
p284
aS'signal in feature: Color ecc bin: 1 phase: 0.278 value: 0.242108 at 160.496132 '
p285
aS'stimulus draw for phase 0.277908, at 160.506110'
p286
aS'stimulus draw for phase 0.291798, at 161.006029'
p287
aS'stimulus draw for phase 0.305698, at 161.506344'
p288
aS'stimulus draw for phase 0.319577, at 162.005951'
p289
aS'stimulus draw for phase 0.333479, at 162.504685'
p290
aS'signal in feature: Fix ecc bin: 1 phase: 0.347 value: -0.157010 at 162.996457 '
p291
aS'stimulus draw for phase 0.347365, at 163.007385'
p292
aS'stimulus draw for phase 0.361280, at 163.507383'
p293
aS'staircase Fix bin 1 updated from 0.157010 after response 1 at 163.532426'
p294
aS'trial 0 key: z at time: 163.532458067'
p295
aS'trial 0 event z at 163.532465935'
p296
aS'signal in feature: Color ecc bin: 0 phase: 0.375 value: -0.242108 at 163.997656 '
p297
aS'stimulus draw for phase 0.375172, at 164.007622'
p298
aS'stimulus draw for phase 0.389069, at 164.507773'
p299
aS'stimulus draw for phase 0.402964, at 165.007957'
p300
aS'stimulus draw for phase 0.416859, at 165.508238'
p301
aS'signal in feature: Speed ecc bin: 0 phase: 0.431 value: -1.972144 at 165.998641 '
p302
aS'stimulus draw for phase 0.430754, at 166.008553'
p303
aS'stimulus draw for phase 0.444651, at 166.508700'
p304
aS'stimulus draw for phase 0.458546, at 167.008899'
p305
aS'signal in feature: Color ecc bin: 0 phase: 0.472 value: -0.242108 at 167.499316 '
p306
aS'stimulus draw for phase 0.472440, at 167.509274'
p307
aS'stimulus draw for phase 0.486334, at 168.009214'
p308
aS'stimulus draw for phase 0.500233, at 168.509667'
p309
aS'stimulus draw for phase 0.514125, at 169.009799'
p310
aS'signal in feature: Color ecc bin: 0 phase: 0.528 value: 0.242108 at 169.500257 '
p311
aS'stimulus draw for phase 0.528022, at 169.510191'
p312
aS'stimulus draw for phase 0.541917, at 170.010270'
p313
aS'stimulus draw for phase 0.555813, at 170.510546'
p314
aS'stimulus draw for phase 0.569705, at 171.010548'
p315
aS'stimulus draw for phase 0.583603, at 171.510986'
p316
aS'stimulus draw for phase 0.597498, at 172.011214'
p317
aS'stimulus draw for phase 0.611393, at 172.511305'
p318
aS'signal in feature: Color ecc bin: 1 phase: 0.625 value: 0.242108 at 173.001206 '
p319
aS'stimulus draw for phase 0.625273, at 173.011137'
p320
aS'stimulus draw for phase 0.639170, at 173.511230'
p321
aS'signal in feature: Speed ecc bin: 1 phase: 0.653 value: -1.972144 at 174.002363 '
p322
aS'stimulus draw for phase 0.653079, at 174.012283'
p323
aS'stimulus draw for phase 0.666961, at 174.511758'
p324
aS'stimulus draw for phase 0.680869, at 175.012572'
p325
aS'stimulus draw for phase 0.694753, at 175.512280'
p326
aS'stimulus draw for phase 0.708656, at 176.012864'
p327
aS'stimulus draw for phase 0.722556, at 176.513342'
p328
aS'stimulus draw for phase 0.736450, at 177.013502'
p329
aS'stimulus draw for phase 0.750348, at 177.513837'
p330
aS'stimulus draw for phase 0.764241, at 178.014068'
p331
aS'stimulus draw for phase 0.778123, at 178.513583'
p332
aS'stimulus draw for phase 0.792032, at 179.014458'
p333
aS'signal in feature: Fix ecc bin: 2 phase: 0.806 value: 0.242605 at 179.505042 '
p334
aS'stimulus draw for phase 0.805931, at 179.517786'
p335
aS'signal in feature: Speed ecc bin: 2 phase: 0.820 value: -1.972144 at 180.005062 '
p336
aS'stimulus draw for phase 0.819822, at 180.014967'
p337
aS'staircase Fix bin 2 updated from 0.242605 after response 1 at 180.204727'
p338
aS'trial 0 key: m at time: 180.204762936'
p339
aS'trial 0 event m at 180.204773903'
p340
aS'stimulus draw for phase 0.833719, at 180.515248'
p341
aS'stimulus draw for phase 0.847617, at 181.015477'
p342
aS'stimulus draw for phase 0.861509, at 181.515544'
p343
aS'stimulus draw for phase 0.875397, at 182.015516'
p344
aS'stimulus draw for phase 0.889300, at 182.516128'
p345
aS'stimulus draw for phase 0.903195, at 183.016325'
p346
aS'signal in feature: Speed ecc bin: 3 phase: 0.917 value: -1.972144 at 183.506719 '
p347
aS'signal in feature: Fix ecc bin: 3 phase: 0.917 value: -0.192686 at 183.506906 '
p348
aS'stimulus draw for phase 0.917090, at 183.518576'
p349
aS'signal in feature: Color ecc bin: 3 phase: 0.931 value: -0.242108 at 184.006928 '
p350
aS'stimulus draw for phase 0.930984, at 184.016881'
p351
aS'staircase Fix bin 3 updated from 0.192686 after response 1 at 184.239936'
p352
aS'trial 0 key: z at time: 184.239971876'
p353
aS'trial 0 event z at 184.239980936'
p354
aS'stimulus draw for phase 0.944881, at 184.516997'
p355
aS'stimulus draw for phase 0.958774, at 185.017180'
p356
aS'stimulus draw for phase 0.972674, at 185.517551'
p357
aS'stimulus draw for phase 0.986566, at 186.017661'
p358
aS'trial 0 phase 4 started at 186.507477999'
p359
aa(lp360
S'trial 1 started at 186.563205004'
p361
aS'trial 1 phase 1 started at 186.563212872'
p362
aS'trial 1 phase 2 started at 186.563217878'
p363
aS'trial 1 phase 3 started at 189.57525897'
p364
aS'stimulus draw for phase 0.000001, at 189.585733'
p365
aS'stimulus draw for phase 0.013903, at 190.086235'
p366
aS'stimulus draw for phase 0.027794, at 190.586249'
p367
aS'stimulus draw for phase 0.041693, at 191.086686'
p368
aS'stimulus draw for phase 0.055592, at 191.585383'
p369
aS'signal in feature: Speed ecc bin: 3 phase: 0.069 value: 1.972144 at 192.077374 '
p370
aS'stimulus draw for phase 0.069484, at 192.087341'
p371
aS'stimulus draw for phase 0.083378, at 192.587376'
p372
aS'signal in feature: Color ecc bin: 3 phase: 0.097 value: -0.242108 at 193.077778 '
p373
aS'stimulus draw for phase 0.097274, at 193.087734'
p374
aS'stimulus draw for phase 0.111169, at 193.587869'
p375
aS'stimulus draw for phase 0.125064, at 194.088038'
p376
aS'stimulus draw for phase 0.138959, at 194.588311'
p377
aS'signal in feature: Color ecc bin: 2 phase: 0.153 value: -0.242108 at 195.078709 '
p378
aS'stimulus draw for phase 0.152856, at 195.088661'
p379
aS'stimulus draw for phase 0.166751, at 195.588786'
p380
aS'stimulus draw for phase 0.180645, at 196.088987'
p381
aS'signal in feature: Speed ecc bin: 2 phase: 0.195 value: -1.972144 at 196.579435 '
p382
aS'stimulus draw for phase 0.194541, at 196.589433'
p383
aS'stimulus draw for phase 0.208437, at 197.089495'
p384
aS'stimulus draw for phase 0.222331, at 197.589652'
p385
aS'stimulus draw for phase 0.236212, at 198.089309'
p386
aS'stimulus draw for phase 0.250122, at 198.590215'
p387
aS'stimulus draw for phase 0.264018, at 199.090375'
p388
aS'stimulus draw for phase 0.277913, at 199.590608'
p389
aS'signal in feature: Fix ecc bin: 1 phase: 0.292 value: -0.143684 at 200.081062 '
p390
aS'stimulus draw for phase 0.291808, at 200.092898'
p391
aS'signal in feature: Color ecc bin: 1 phase: 0.306 value: -0.242108 at 200.581248 '
p392
aS'signal in feature: Speed ecc bin: 1 phase: 0.306 value: 1.972144 at 200.581433 '
p393
aS'stimulus draw for phase 0.305703, at 200.591303'
p394
aS'staircase Fix bin 1 updated from 0.143684 after response 1 at 200.764539'
p395
aS'trial 1 key: z at time: 200.764580011'
p396
aS'trial 1 event z at 200.764590979'
p397
aS'stimulus draw for phase 0.319598, at 201.091276'
p398
aS'stimulus draw for phase 0.333494, at 201.591455'
p399
aS'stimulus draw for phase 0.347375, at 202.091144'
p400
aS'stimulus draw for phase 0.361285, at 202.592032'
p401
aS'stimulus draw for phase 0.375180, at 203.092234'
p402
aS'stimulus draw for phase 0.389061, at 203.591823'
p403
aS'stimulus draw for phase 0.402971, at 204.092678'
p404
aS'signal in feature: Color ecc bin: 0 phase: 0.417 value: -0.242108 at 204.583049 '
p405
aS'stimulus draw for phase 0.416864, at 204.593031'
p406
aS'stimulus draw for phase 0.430761, at 205.093118'
p407
aS'stimulus draw for phase 0.444657, at 205.593407'
p408
aS'stimulus draw for phase 0.458552, at 206.093608'
p409
aS'signal in feature: Color ecc bin: 0 phase: 0.472 value: -0.242108 at 206.583980 '
p410
aS'signal in feature: Fix ecc bin: 0 phase: 0.472 value: -0.173357 at 206.584200 '
p411
aS'stimulus draw for phase 0.472446, at 206.596196'
p412
aS'stimulus draw for phase 0.486342, at 207.094046'
p413
aS'staircase Fix bin 0 updated from 0.173357 after response 1 at 207.218775'
p414
aS'trial 1 key: z at time: 207.218811989'
p415
aS'trial 1 event z at 207.218821049'
p416
aS'stimulus draw for phase 0.500237, at 207.594340'
p417
aS'stimulus draw for phase 0.514132, at 208.094481'
p418
aS'signal in feature: Speed ecc bin: 0 phase: 0.528 value: -1.972144 at 208.584933 '
p419
aS'stimulus draw for phase 0.528027, at 208.594865'
p420
aS'stimulus draw for phase 0.541924, at 209.095013'
p421
aS'signal in feature: Fix ecc bin: 0 phase: 0.556 value: -0.157010 at 209.585467 '
p422
aS'stimulus draw for phase 0.555819, at 209.597090'
p423
aS'staircase Fix bin 0 updated from 0.157010 after response 1 at 210.087550'
p424
aS'trial 1 key: z at time: 210.087590933'
p425
aS'trial 1 event z at 210.087599993'
p426
aS'stimulus draw for phase 0.569712, at 210.096923'
p427
aS'stimulus draw for phase 0.583608, at 210.595691'
p428
aS'stimulus draw for phase 0.597505, at 211.095934'
p429
aS'stimulus draw for phase 0.611394, at 211.595933'
p430
aS'signal in feature: Color ecc bin: 1 phase: 0.625 value: 0.242108 at 212.086534 '
p431
aS'stimulus draw for phase 0.625295, at 212.096544'
p432
aS'stimulus draw for phase 0.639190, at 212.596608'
p433
aS'signal in feature: Speed ecc bin: 1 phase: 0.653 value: 1.972144 at 213.086460 '
p434
aS'stimulus draw for phase 0.653073, at 213.096420'
p435
aS'stimulus draw for phase 0.666966, at 213.596365'
p436
aS'stimulus draw for phase 0.680876, at 214.097303'
p437
aS'stimulus draw for phase 0.694771, at 214.597503'
p438
aS'signal in feature: Fix ecc bin: 1 phase: 0.709 value: 0.131086 at 215.088023 '
p439
aS'stimulus draw for phase 0.708668, at 215.099498'
p440
aS'stimulus draw for phase 0.722561, at 215.597988'
p441
aS'staircase Fix bin 1 updated from 0.131086 after response 0 at 215.906946'
p442
aS'trial 1 key: z at time: 215.906982899'
p443
aS'trial 1 event z at 215.906997919'
p444
aS'signal in feature: Speed ecc bin: 1 phase: 0.736 value: 1.972144 at 216.088418 '
p445
aS'stimulus draw for phase 0.736458, at 216.098354'
p446
aS'trial 1 key: m at time: 216.223255873'
p447
aS'trial 1 event m at 216.223268032'
p448
aS'stimulus draw for phase 0.750353, at 216.598502'
p449
aS'stimulus draw for phase 0.764248, at 217.098736'
p450
aS'stimulus draw for phase 0.778142, at 217.598906'
p451
aS'stimulus draw for phase 0.792039, at 218.099132'
p452
aS'stimulus draw for phase 0.805934, at 218.599397'
p453
aS'signal in feature: Fix ecc bin: 2 phase: 0.820 value: 0.233185 at 219.089810 '
p454
aS'stimulus draw for phase 0.819829, at 219.102115'
p455
aS'stimulus draw for phase 0.833724, at 219.599804'
p456
aS'staircase Fix bin 2 updated from 0.233185 after response 1 at 219.892154'
p457
aS'trial 1 key: m at time: 219.892197847'
p458
aS'trial 1 event m at 219.892219067'
p459
aS'signal in feature: Color ecc bin: 2 phase: 0.848 value: -0.242108 at 220.090250 '
p460
aS'signal in feature: Speed ecc bin: 2 phase: 0.848 value: 1.972144 at 220.090438 '
p461
aS'stimulus draw for phase 0.847620, at 220.100323'
p462
aS'stimulus draw for phase 0.861514, at 220.600275'
p463
aS'stimulus draw for phase 0.875410, at 221.100584'
p464
aS'signal in feature: Fix ecc bin: 3 phase: 0.889 value: 0.173357 at 221.591010 '
p465
aS'stimulus draw for phase 0.889306, at 221.602950'
p466
aS'signal in feature: Color ecc bin: 3 phase: 0.903 value: 0.242108 at 222.091178 '
p467
aS'stimulus draw for phase 0.903202, at 222.101167'
p468
aS'staircase Fix bin 3 updated from 0.173357 after response 1 at 222.323925'
p469
aS'trial 1 key: m at time: 222.32396102'
p470
aS'trial 1 event m at 222.323969841'
p471
aS'stimulus draw for phase 0.917095, at 222.601198'
p472
aS'stimulus draw for phase 0.930973, at 223.099323'
p473
aS'stimulus draw for phase 0.944887, at 223.601689'
p474
aS'stimulus draw for phase 0.958782, at 224.101865'
p475
aS'stimulus draw for phase 0.972677, at 224.602125'
p476
aS'stimulus draw for phase 0.986573, at 225.102327'
p477
aS'trial 1 phase 4 started at 225.575484991'
p478
aa(lp479
S'trial 2 started at 225.631327868'
p480
aS'trial 2 phase 1 started at 225.631336927'
p481
aS'trial 2 phase 2 started at 225.631341934'
p482
aS'trial 2 phase 3 started at 228.643499851'
p483
aS'stimulus draw for phase 0.000002, at 228.654221'
p484
aS'stimulus draw for phase 0.013895, at 229.154123'
p485
aS'stimulus draw for phase 0.027790, at 229.654513'
p486
aS'stimulus draw for phase 0.041687, at 230.154816'
p487
aS'signal in feature: Fix ecc bin: 3 phase: 0.056 value: -0.157010 at 230.645161 '
p488
aS'stimulus draw for phase 0.055582, at 230.655424'
p489
aS'stimulus draw for phase 0.069463, at 231.154553'
p490
aS'trial 2 key: z at time: 231.530457973'
p491
aS'trial 2 event z at 231.530469894'
p492
aS'stimulus draw for phase 0.083370, at 231.655654'
p493
aS'stimulus draw for phase 0.097268, at 232.155703'
p494
aS'stimulus draw for phase 0.111162, at 232.655833'
p495
aS'stimulus draw for phase 0.125058, at 233.156185'
p496
aS'signal in feature: Fix ecc bin: 2 phase: 0.139 value: -0.224704 at 233.646431 '
p497
aS'stimulus draw for phase 0.138951, at 233.656587'
p498
aS'signal in feature: Color ecc bin: 2 phase: 0.153 value: 0.242108 at 234.146768 '
p499
aS'stimulus draw for phase 0.152851, at 234.156847'
p500
aS'stimulus draw for phase 0.166743, at 234.656855'
p501
aS'stimulus draw for phase 0.180640, at 235.157046'
p502
aS'stimulus draw for phase 0.194534, at 235.657360'
p503
aS'stimulus draw for phase 0.208431, at 236.157598'
p504
aS'stimulus draw for phase 0.222325, at 236.657769'
p505
aS'stimulus draw for phase 0.236221, at 237.158027'
p506
aS'signal in feature: Fix ecc bin: 1 phase: 0.250 value: 0.191987 at 237.648386 '
p507
aS'stimulus draw for phase 0.250117, at 237.658642'
p508
aS'signal in feature: Speed ecc bin: 1 phase: 0.264 value: -1.972144 at 238.148547 '
p509
aS'stimulus draw for phase 0.264011, at 238.160921'
p510
aS'signal in feature: Color ecc bin: 1 phase: 0.278 value: -0.242108 at 238.648727 '
p511
aS'stimulus draw for phase 0.277906, at 238.658777'
p512
aS'staircase Speed bin 1 updated from 1.972144 after response 1 at 239.100926'
p513
aS'trial 2 key: z at time: 239.100965977'
p514
aS'trial 2 event z at 239.100975037'
p515
aS'stimulus draw for phase 0.291802, at 239.158958'
p516
aS'stimulus draw for phase 0.305695, at 239.659092'
p517
aS'stimulus draw for phase 0.319592, at 240.159380'
p518
aS'stimulus draw for phase 0.333488, at 240.659659'
p519
aS'stimulus draw for phase 0.347384, at 241.159898'
p520
aS'stimulus draw for phase 0.361279, at 241.660082'
p521
aS'stimulus draw for phase 0.375174, at 242.160311'
p522
aS'stimulus draw for phase 0.389068, at 242.660555'
p523
aS'signal in feature: Fix ecc bin: 0 phase: 0.403 value: 0.143684 at 243.150941 '
p524
aS'stimulus draw for phase 0.402965, at 243.161156'
p525
aS'stimulus draw for phase 0.416858, at 243.660989'
p526
aS'stimulus draw for phase 0.430755, at 244.161287'
p527
aS'stimulus draw for phase 0.444647, at 244.661350'
p528
aS'stimulus draw for phase 0.458531, at 245.161077'
p529
aS'signal in feature: Speed ecc bin: 0 phase: 0.472 value: -1.972144 at 245.652007 '
p530
aS'signal in feature: Fix ecc bin: 0 phase: 0.472 value: -0.143684 at 245.655683 '
p531
aS'stimulus draw for phase 0.472440, at 245.664562'
p532
aS'stimulus draw for phase 0.486336, at 246.162150'
p533
aS'staircase Speed bin 0 updated from 1.972144 after response 0 at 246.318606'
p534
aS'trial 2 key: m at time: 246.318642855'
p535
aS'trial 2 event m at 246.318651915'
p536
aS'trial 2 key: z at time: 246.653944016'
p537
aS'trial 2 event z at 246.653955936'
p538
aS'stimulus draw for phase 0.500230, at 246.663416'
p539
aS'stimulus draw for phase 0.514126, at 247.162559'
p540
aS'stimulus draw for phase 0.528021, at 247.662841'
p541
aS'signal in feature: Color ecc bin: 0 phase: 0.542 value: -0.242108 at 248.153158 '
p542
aS'stimulus draw for phase 0.541917, at 248.163204'
p543
aS'signal in feature: Fix ecc bin: 0 phase: 0.556 value: -0.143684 at 248.653479 '
p544
aS'stimulus draw for phase 0.555813, at 248.663763'
p545
aS'stimulus draw for phase 0.569708, at 249.163548'
p546
aS'signal in feature: Speed ecc bin: 0 phase: 0.584 value: 2.731507 at 249.653651 '
p547
aS'stimulus draw for phase 0.583597, at 249.665712'
p548
aS'stimulus draw for phase 0.597499, at 250.163940'
p549
aS'staircase Speed bin 0 updated from 2.731507 after response 1 at 250.453648'
p550
aS'trial 2 key: m at time: 250.453685045'
p551
aS'trial 2 event m at 250.453695059'
p552
aS'stimulus draw for phase 0.611392, at 250.664214'
p553
aS'stimulus draw for phase 0.625289, at 251.164484'
p554
aS'stimulus draw for phase 0.639184, at 251.664711'
p555
aS'signal in feature: Color ecc bin: 1 phase: 0.653 value: 0.242108 at 252.155044 '
p556
aS'stimulus draw for phase 0.653081, at 252.165363'
p557
aS'stimulus draw for phase 0.666974, at 252.665139'
p558
aS'stimulus draw for phase 0.680871, at 253.165390'
p559
aS'stimulus draw for phase 0.694765, at 253.665631'
p560
aS'stimulus draw for phase 0.708661, at 254.165851'
p561
aS'stimulus draw for phase 0.722555, at 254.666068'
p562
aS'stimulus draw for phase 0.736452, at 255.166317'
p563
aS'stimulus draw for phase 0.750348, at 255.666604'
p564
aS'signal in feature: Speed ecc bin: 2 phase: 0.764 value: -1.972144 at 256.156800 '
p565
aS'stimulus draw for phase 0.764240, at 256.168500'
p566
aS'stimulus draw for phase 0.778136, at 256.667003'
p567
aS'staircase Speed bin 2 updated from 1.972144 after response 1 at 256.940107'
p568
aS'trial 2 key: z at time: 256.940144062'
p569
aS'trial 2 event z at 256.940152884'
p570
aS'stimulus draw for phase 0.792033, at 257.167256'
p571
aS'signal in feature: Fix ecc bin: 2 phase: 0.806 value: 0.224704 at 257.657508 '
p572
aS'stimulus draw for phase 0.805925, at 257.667621'
p573
aS'stimulus draw for phase 0.819823, at 258.167853'
p574
aS'stimulus draw for phase 0.833718, at 258.667953'
p575
aS'signal in feature: Color ecc bin: 2 phase: 0.848 value: 0.242108 at 259.158296 '
p576
aS'stimulus draw for phase 0.847615, at 259.168358'
p577
aS'signal in feature: Fix ecc bin: 2 phase: 0.862 value: -0.224704 at 259.658500 '
p578
aS'stimulus draw for phase 0.861508, at 259.668502'
p579
aS'stimulus draw for phase 0.875403, at 260.168462'
p580
aS'stimulus draw for phase 0.889299, at 260.668861'
p581
aS'signal in feature: Color ecc bin: 3 phase: 0.903 value: 0.242108 at 261.158492 '
p582
aS'stimulus draw for phase 0.903180, at 261.168751'
p583
aS'stimulus draw for phase 0.917089, at 261.669274'
p584
aS'stimulus draw for phase 0.930986, at 262.169565'
p585
aS'stimulus draw for phase 0.944881, at 262.669808'
p586
aS'stimulus draw for phase 0.958777, at 263.170135'
p587
aS'stimulus draw for phase 0.972658, at 263.669630'
p588
aS'stimulus draw for phase 0.986567, at 264.170416'
p589
aS'trial 2 phase 4 started at 264.660064936'
p590
aa(lp591
S'trial 3 started at 264.715920925'
p592
aS'trial 3 phase 1 started at 264.715929031'
p593
aS'trial 3 phase 2 started at 264.715934038'
p594
aS'trial 3 phase 3 started at 267.72821188'
p595
aS'stimulus draw for phase 0.000001, at 267.738809'
p596
aS'stimulus draw for phase 0.013897, at 268.239093'
p597
aS'stimulus draw for phase 0.027790, at 268.739249'
p598
aS'stimulus draw for phase 0.041685, at 269.239361'
p599
aS'signal in feature: Speed ecc bin: 3 phase: 0.056 value: 1.972144 at 269.729818 '
p600
aS'stimulus draw for phase 0.055581, at 269.739891'
p601
aS'stimulus draw for phase 0.069475, at 270.239819'
p602
aS'stimulus draw for phase 0.083371, at 270.740133'
p603
aS'signal in feature: Fix ecc bin: 3 phase: 0.097 value: -0.157010 at 271.230519 '
p604
aS'stimulus draw for phase 0.097267, at 271.242591'
p605
aS'stimulus draw for phase 0.111163, at 271.740576'
p606
aS'staircase Fix bin 3 updated from 0.157010 after response 1 at 271.882061'
p607
aS'trial 3 key: z at time: 271.882098913'
p608
aS'trial 3 event z at 271.88210988'
p609
aS'signal in feature: Color ecc bin: 2 phase: 0.125 value: -0.242108 at 272.230386 '
p610
aS'stimulus draw for phase 0.125044, at 272.240375'
p611
aS'stimulus draw for phase 0.138953, at 272.741024'
p612
aS'stimulus draw for phase 0.152850, at 273.241391'
p613
aS'signal in feature: Fix ecc bin: 2 phase: 0.167 value: 0.224704 at 273.731645 '
p614
aS'stimulus draw for phase 0.166742, at 273.743290'
p615
aS'signal in feature: Color ecc bin: 2 phase: 0.181 value: 0.242108 at 274.231812 '
p616
aS'stimulus draw for phase 0.180638, at 274.241713'
p617
aS'staircase Fix bin 2 updated from 0.224704 after response 1 at 274.383777'
p618
aS'trial 3 key: m at time: 274.383816004'
p619
aS'trial 3 event m at 274.383825064'
p620
aS'stimulus draw for phase 0.194520, at 274.741314'
p621
aS'signal in feature: Speed ecc bin: 2 phase: 0.208 value: -1.404142 at 275.232267 '
p622
aS'stimulus draw for phase 0.208428, at 275.242003'
p623
aS'stimulus draw for phase 0.222324, at 275.742451'
p624
aS'stimulus draw for phase 0.236222, at 276.242602'
p625
aS'stimulus draw for phase 0.250115, at 276.742858'
p626
aS'stimulus draw for phase 0.264010, at 277.242925'
p627
aS'signal in feature: Color ecc bin: 1 phase: 0.278 value: -0.242108 at 277.733435 '
p628
aS'stimulus draw for phase 0.277905, at 277.743489'
p629
aS'stimulus draw for phase 0.291801, at 278.243480'
p630
aS'stimulus draw for phase 0.305697, at 278.743808'
p631
aS'stimulus draw for phase 0.319588, at 279.243780'
p632
aS'stimulus draw for phase 0.333487, at 279.744227'
p633
aS'signal in feature: Fix ecc bin: 1 phase: 0.347 value: -0.191987 at 280.234666 '
p634
aS'stimulus draw for phase 0.347382, at 280.246545'
p635
aS'signal in feature: Speed ecc bin: 1 phase: 0.361 value: 1.404142 at 280.734829 '
p636
aS'stimulus draw for phase 0.361276, at 280.744777'
p637
aS'staircase Fix bin 1 updated from 0.191987 after response 1 at 280.820079'
p638
aS'trial 3 key: z at time: 280.820119858'
p639
aS'trial 3 event z at 280.820128918'
p640
aS'stimulus draw for phase 0.375171, at 281.244676'
p641
aS'stimulus draw for phase 0.389068, at 281.745246'
p642
aS'signal in feature: Color ecc bin: 0 phase: 0.403 value: 0.242108 at 282.235539 '
p643
aS'stimulus draw for phase 0.402964, at 282.245334'
p644
aS'signal in feature: Fix ecc bin: 0 phase: 0.417 value: -0.143684 at 282.735790 '
p645
aS'stimulus draw for phase 0.416857, at 282.748343'
p646
aS'stimulus draw for phase 0.430753, at 283.245698'
p647
aS'staircase Fix bin 0 updated from 0.143684 after response 1 at 283.386008'
p648
aS'trial 3 key: z at time: 283.386051893'
p649
aS'trial 3 event z at 283.386060953'
p650
aS'stimulus draw for phase 0.444649, at 283.746134'
p651
aS'stimulus draw for phase 0.458547, at 284.246110'
p652
aS'stimulus draw for phase 0.472439, at 284.746521'
p653
aS'stimulus draw for phase 0.486335, at 285.246745'
p654
aS'stimulus draw for phase 0.500231, at 285.747124'
p655
aS'stimulus draw for phase 0.514125, at 286.247170'
p656
aS'signal in feature: Speed ecc bin: 0 phase: 0.528 value: 2.463448 at 286.737622 '
p657
aS'stimulus draw for phase 0.528020, at 286.747674'
p658
aS'stimulus draw for phase 0.541917, at 287.247613'
p659
aS'stimulus draw for phase 0.555812, at 287.747926'
p660
aS'signal in feature: Color ecc bin: 0 phase: 0.570 value: 0.242108 at 288.238419 '
p661
aS'stimulus draw for phase 0.569710, at 288.248331'
p662
aS'signal in feature: Speed ecc bin: 0 phase: 0.584 value: -2.463448 at 288.738612 '
p663
aS'stimulus draw for phase 0.583602, at 288.748930'
p664
aS'stimulus draw for phase 0.597498, at 289.248558'
p665
aS'stimulus draw for phase 0.611389, at 289.748778'
p666
aS'stimulus draw for phase 0.625288, at 290.248995'
p667
aS'stimulus draw for phase 0.639183, at 290.749467'
p668
aS'stimulus draw for phase 0.653079, at 291.249415'
p669
aS'signal in feature: Fix ecc bin: 1 phase: 0.667 value: -0.184475 at 291.739949 '
p670
aS'stimulus draw for phase 0.666973, at 291.751827'
p671
aS'stimulus draw for phase 0.680869, at 292.249865'
p672
aS'staircase Fix bin 1 updated from 0.184475 after response 1 at 292.656536'
p673
aS'trial 3 key: z at time: 292.656574011'
p674
aS'trial 3 event z at 292.656582832'
p675
aS'signal in feature: Speed ecc bin: 1 phase: 0.695 value: -1.404142 at 292.740432 '
p676
aS'stimulus draw for phase 0.694765, at 292.750466'
p677
aS'stimulus draw for phase 0.708659, at 293.250314'
p678
aS'stimulus draw for phase 0.722554, at 293.750724'
p679
aS'stimulus draw for phase 0.736450, at 294.250798'
p680
aS'signal in feature: Fix ecc bin: 2 phase: 0.750 value: -0.216872 at 294.741386 '
p681
aS'stimulus draw for phase 0.750346, at 294.753547'
p682
aS'stimulus draw for phase 0.764240, at 295.251213'
p683
aS'staircase Fix bin 2 updated from 0.216872 after response 1 at 295.393443'
p684
aS'trial 3 key: z at time: 295.393483877'
p685
aS'trial 3 event z at 295.393492937'
p686
aS'stimulus draw for phase 0.778136, at 295.751720'
p687
aS'stimulus draw for phase 0.792032, at 296.251765'
p688
aS'signal in feature: Speed ecc bin: 2 phase: 0.806 value: -1.404142 at 296.742228 '
p689
aS'stimulus draw for phase 0.805926, at 296.752266'
p690
aS'signal in feature: Color ecc bin: 2 phase: 0.820 value: -0.242108 at 297.242406 '
p691
aS'stimulus draw for phase 0.819821, at 297.252301'
p692
aS'stimulus draw for phase 0.833717, at 297.752565'
p693
aS'stimulus draw for phase 0.847614, at 298.252799'
p694
aS'stimulus draw for phase 0.861507, at 298.753064'
p695
aS'signal in feature: Color ecc bin: 3 phase: 0.875 value: 0.242108 at 299.243341 '
p696
aS'signal in feature: Speed ecc bin: 3 phase: 0.875 value: 1.972144 at 299.243532 '
p697
aS'signal in feature: Fix ecc bin: 3 phase: 0.875 value: 0.143684 at 299.243697 '
p698
aS'stimulus draw for phase 0.875402, at 299.255297'
p699
aS'stimulus draw for phase 0.889299, at 299.753448'
p700
aS'staircase Fix bin 3 updated from 0.143684 after response 1 at 299.859909'
p701
aS'trial 3 key: m at time: 299.859946012'
p702
aS'trial 3 event m at 299.859954834'
p703
aS'stimulus draw for phase 0.903194, at 300.253825'
p704
aS'stimulus draw for phase 0.917089, at 300.754012'
p705
aS'stimulus draw for phase 0.930984, at 301.254210'
p706
aS'stimulus draw for phase 0.944880, at 301.754411'
p707
aS'stimulus draw for phase 0.958774, at 302.254647'
p708
aS'stimulus draw for phase 0.972670, at 302.754913'
p709
aS'stimulus draw for phase 0.986565, at 303.255120'
p710
aS'trial 3 phase 4 started at 303.74413085'
p711
aa(lp712
S'trial 4 started at 303.799622059'
p713
aS'trial 4 phase 1 started at 303.79963088'
p714
aS'trial 4 phase 2 started at 303.799635887'
p715
aS'trial 4 phase 3 started at 306.812850952'
p716
aS'stimulus draw for phase 0.000002, at 306.823392'
p717
aS'stimulus draw for phase 0.013897, at 307.323687'
p718
aS'stimulus draw for phase 0.027787, at 307.823749'
p719
aS'signal in feature: Color ecc bin: 3 phase: 0.042 value: 0.242108 at 308.314248 '
p720
aS'stimulus draw for phase 0.041687, at 308.326145'
p721
aS'stimulus draw for phase 0.055582, at 308.824343'
p722
aS'stimulus draw for phase 0.069463, at 309.323937'
p723
aS'stimulus draw for phase 0.083372, at 309.824822'
p724
aS'staircase Color bin 3 updated from 0.242108 after response 1 at 309.950309'
p725
aS'trial 4 key: m at time: 309.950348854'
p726
aS'trial 4 event m at 309.950357914'
p727
aS'signal in feature: Fix ecc bin: 3 phase: 0.097 value: 0.131086 at 310.315196 '
p728
aS'stimulus draw for phase 0.097268, at 310.325193'
p729
aS'stimulus draw for phase 0.111164, at 310.825243'
p730
aS'stimulus draw for phase 0.125059, at 311.325551'
p731
aS'stimulus draw for phase 0.138954, at 311.825691'
p732
aS'stimulus draw for phase 0.152850, at 312.325974'
p733
aS'stimulus draw for phase 0.166743, at 312.826121'
p734
aS'stimulus draw for phase 0.180640, at 313.326316'
p735
aS'signal in feature: Fix ecc bin: 2 phase: 0.195 value: -0.210254 at 313.816815 '
p736
aS'stimulus draw for phase 0.194535, at 313.827091'
p737
aS'stimulus draw for phase 0.208431, at 314.326846'
p738
aS'signal in feature: Color ecc bin: 2 phase: 0.222 value: -0.242108 at 314.817130 '
p739
aS'stimulus draw for phase 0.222324, at 314.829033'
p740
aS'signal in feature: Speed ecc bin: 2 phase: 0.236 value: -1.404142 at 315.317430 '
p741
aS'stimulus draw for phase 0.236220, at 315.327421'
p742
aS'staircase Color bin 2 updated from 0.242108 after response 1 at 315.752820'
p743
aS'trial 4 key: z at time: 315.752859831'
p744
aS'trial 4 event z at 315.752869844'
p745
aS'stimulus draw for phase 0.250118, at 315.827596'
p746
aS'stimulus draw for phase 0.263997, at 316.327191'
p747
aS'stimulus draw for phase 0.277906, at 316.828057'
p748
aS'stimulus draw for phase 0.291792, at 317.327876'
p749
aS'signal in feature: Fix ecc bin: 1 phase: 0.306 value: 0.177431 at 317.818679 '
p750
aS'stimulus draw for phase 0.305697, at 317.828637'
p751
aS'stimulus draw for phase 0.319593, at 318.328736'
p752
aS'stimulus draw for phase 0.333484, at 318.828837'
p753
aS'stimulus draw for phase 0.347384, at 319.329271'
p754
aS'signal in feature: Fix ecc bin: 1 phase: 0.361 value: 0.177431 at 319.819370 '
p755
aS'stimulus draw for phase 0.361273, at 319.829365'
p756
aS'signal in feature: Color ecc bin: 0 phase: 0.375 value: -0.242108 at 320.319725 '
p757
aS'signal in feature: Speed ecc bin: 0 phase: 0.375 value: -2.463448 at 320.323400 '
p758
aS'stimulus draw for phase 0.375174, at 320.331763'
p759
aS'stimulus draw for phase 0.389069, at 320.829897'
p760
aS'staircase Color bin 0 updated from 0.242108 after response 1 at 321.138702'
p761
aS'trial 4 key: z at time: 321.138741016'
p762
aS'trial 4 event z at 321.138749838'
p763
aS'stimulus draw for phase 0.402965, at 321.330100'
p764
aS'stimulus draw for phase 0.416856, at 321.830162'
p765
aS'stimulus draw for phase 0.430755, at 322.330590'
p766
aS'stimulus draw for phase 0.444650, at 322.830845'
p767
aS'signal in feature: Speed ecc bin: 0 phase: 0.459 value: 2.463448 at 323.321191 '
p768
aS'stimulus draw for phase 0.458547, at 323.331202'
p769
aS'stimulus draw for phase 0.472440, at 323.831162'
p770
aS'stimulus draw for phase 0.486337, at 324.331516'
p771
aS'signal in feature: Fix ecc bin: 0 phase: 0.500 value: 0.131086 at 324.821904 '
p772
aS'stimulus draw for phase 0.500232, at 324.832186'
p773
aS'stimulus draw for phase 0.514126, at 325.331888'
p774
aS'signal in feature: Speed ecc bin: 0 phase: 0.528 value: -2.463448 at 325.822303 '
p775
aS'stimulus draw for phase 0.528021, at 325.832249'
p776
aS'stimulus draw for phase 0.541918, at 326.332443'
p777
aS'signal in feature: Fix ecc bin: 0 phase: 0.556 value: -0.131086 at 326.822847 '
p778
aS'stimulus draw for phase 0.555813, at 326.832829'
p779
aS'stimulus draw for phase 0.569705, at 327.332575'
p780
aS'stimulus draw for phase 0.583603, at 327.833038'
p781
aS'stimulus draw for phase 0.597499, at 328.333371'
p782
aS'stimulus draw for phase 0.611393, at 328.833560'
p783
aS'stimulus draw for phase 0.625289, at 329.333804'
p784
aS'stimulus draw for phase 0.639185, at 329.834076'
p785
aS'signal in feature: Color ecc bin: 1 phase: 0.653 value: 0.242108 at 330.324400 '
p786
aS'stimulus draw for phase 0.653081, at 330.336852'
p787
aS'signal in feature: Speed ecc bin: 1 phase: 0.667 value: -1.404142 at 330.824642 '
p788
aS'signal in feature: Fix ecc bin: 1 phase: 0.667 value: 0.177431 at 330.824833 '
p789
aS'stimulus draw for phase 0.666976, at 330.834834'
p790
aS'stimulus draw for phase 0.680871, at 331.334760'
p791
aS'stimulus draw for phase 0.694766, at 331.834930'
p792
aS'staircase Color bin 1 updated from 0.242108 after response 0 at 331.977204'
p793
aS'trial 4 key: z at time: 331.9772439'
p794
aS'trial 4 event z at 331.97725296'
p795
aS'stimulus draw for phase 0.708660, at 332.335017'
p796
aS'stimulus draw for phase 0.722556, at 332.835446'
p797
aS'signal in feature: Fix ecc bin: 1 phase: 0.736 value: 0.177431 at 333.325842 '
p798
aS'stimulus draw for phase 0.736453, at 333.335817'
p799
aS'stimulus draw for phase 0.750348, at 333.835957'
p800
aS'signal in feature: Speed ecc bin: 2 phase: 0.764 value: 1.404142 at 334.326215 '
p801
aS'stimulus draw for phase 0.764242, at 334.336277'
p802
aS'stimulus draw for phase 0.778137, at 334.836274'
p803
aS'stimulus draw for phase 0.792033, at 335.336556'
p804
aS'stimulus draw for phase 0.805929, at 335.836874'
p805
aS'signal in feature: Color ecc bin: 2 phase: 0.820 value: 0.213281 at 336.327109 '
p806
aS'signal in feature: Fix ecc bin: 2 phase: 0.820 value: 0.210254 at 336.330730 '
p807
aS'stimulus draw for phase 0.819823, at 336.338961'
p808
aS'signal in feature: Speed ecc bin: 2 phase: 0.834 value: 1.404142 at 336.827407 '
p809
aS'stimulus draw for phase 0.833719, at 336.837395'
p810
aS'staircase Color bin 2 updated from 0.213281 after response 1 at 337.243786'
p811
aS'trial 4 key: m at time: 337.243823051'
p812
aS'trial 4 event m at 337.243831873'
p813
aS'stimulus draw for phase 0.847616, at 337.337428'
p814
aS'stimulus draw for phase 0.861508, at 337.837727'
p815
aS'stimulus draw for phase 0.875393, at 338.337445'
p816
aS'stimulus draw for phase 0.889299, at 338.838142'
p817
aS'signal in feature: Speed ecc bin: 3 phase: 0.903 value: -1.972144 at 339.328575 '
p818
aS'stimulus draw for phase 0.903196, at 339.338595'
p819
aS'stimulus draw for phase 0.917089, at 339.838583'
p820
aS'stimulus draw for phase 0.930986, at 340.338852'
p821
aS'stimulus draw for phase 0.944881, at 340.839088'
p822
aS'stimulus draw for phase 0.958776, at 341.339301'
p823
aS'stimulus draw for phase 0.972671, at 341.839543'
p824
aS'stimulus draw for phase 0.986567, at 342.339835'
p825
aS'trial 4 phase 4 started at 342.829464912'
p826
aa(lp827
S'trial 5 started at 342.885206938'
p828
aS'trial 5 phase 1 started at 342.885215044'
p829
aS'trial 5 phase 2 started at 342.885220051'
p830
aS'trial 5 phase 3 started at 345.897588968'
p831
aS'stimulus draw for phase 0.000001, at 345.908282'
p832
aS'stimulus draw for phase 0.014358, at 346.425081'
p833
aS'stimulus draw for phase 0.027789, at 346.908598'
p834
aS'signal in feature: Color ecc bin: 3 phase: 0.042 value: -0.213281 at 347.398853 '
p835
aS'stimulus draw for phase 0.041684, at 347.410798'
p836
aS'stimulus draw for phase 0.055581, at 347.909085'
p837
aS'signal in feature: Fix ecc bin: 3 phase: 0.069 value: 0.131086 at 348.399507 '
p838
aS'stimulus draw for phase 0.069478, at 348.409125'
p839
aS'staircase Color bin 3 updated from 0.213281 after response 1 at 348.568085'
p840
aS'trial 5 key: z at time: 348.568124056'
p841
aS'trial 5 event z at 348.568133831'
p842
aS'stimulus draw for phase 0.083370, at 348.909465'
p843
aS'stimulus draw for phase 0.097252, at 349.409338'
p844
aS'stimulus draw for phase 0.111162, at 349.909951'
p845
aS'stimulus draw for phase 0.125056, at 350.410230'
p846
aS'stimulus draw for phase 0.138952, at 350.910330'
p847
aS'stimulus draw for phase 0.152846, at 351.410591'
p848
aS'signal in feature: Fix ecc bin: 2 phase: 0.167 value: 0.210254 at 351.901097 '
p849
aS'stimulus draw for phase 0.166744, at 351.911077'
p850
aS'stimulus draw for phase 0.180637, at 352.411130'
p851
aS'signal in feature: Color ecc bin: 2 phase: 0.195 value: 0.190210 at 352.901435 '
p852
aS'stimulus draw for phase 0.194533, at 352.913727'
p853
aS'stimulus draw for phase 0.208428, at 353.411560'
p854
aS'staircase Color bin 2 updated from 0.190210 after response 1 at 353.553629'
p855
aS'trial 5 key: m at time: 353.55366683'
p856
aS'trial 5 event m at 353.55367589'
p857
aS'stimulus draw for phase 0.222323, at 353.911716'
p858
aS'stimulus draw for phase 0.236217, at 354.411938'
p859
aS'signal in feature: Color ecc bin: 1 phase: 0.250 value: -0.361684 at 354.902393 '
p860
aS'stimulus draw for phase 0.250115, at 354.915134'
p861
aS'stimulus draw for phase 0.264008, at 355.412384'
p862
aS'staircase Color bin 1 updated from 0.361684 after response 1 at 355.621215'
p863
aS'trial 5 key: z at time: 355.621255875'
p864
aS'trial 5 event z at 355.621265888'
p865
aS'signal in feature: Speed ecc bin: 1 phase: 0.278 value: 1.404142 at 355.902835 '
p866
aS'signal in feature: Fix ecc bin: 1 phase: 0.278 value: -0.177431 at 355.903023 '
p867
aS'stimulus draw for phase 0.277905, at 355.912973'
p868
aS'stimulus draw for phase 0.291800, at 356.413042'
p869
aS'stimulus draw for phase 0.305696, at 356.913216'
p870
aS'stimulus draw for phase 0.319589, at 357.413421'
p871
aS'stimulus draw for phase 0.333487, at 357.913799'
p872
aS'stimulus draw for phase 0.347381, at 358.413869'
p873
aS'signal in feature: Fix ecc bin: 1 phase: 0.361 value: 0.177431 at 358.904236 '
p874
aS'stimulus draw for phase 0.361276, at 358.914243'
p875
aS'signal in feature: Color ecc bin: 0 phase: 0.375 value: -0.213281 at 359.403771 '
p876
aS'signal in feature: Speed ecc bin: 0 phase: 0.375 value: -2.463448 at 359.407591 '
p877
aS'stimulus draw for phase 0.375157, at 359.416176'
p878
aS'stimulus draw for phase 0.389067, at 359.914578'
p879
aS'staircase Color bin 0 updated from 0.213281 after response 1 at 360.223463'
p880
aS'trial 5 key: z at time: 360.223502874'
p881
aS'trial 5 event z at 360.223512888'
p882
aS'stimulus draw for phase 0.402948, at 360.414161'
p883
aS'stimulus draw for phase 0.416857, at 360.915003'
p884
aS'stimulus draw for phase 0.430752, at 361.415230'
p885
aS'signal in feature: Speed ecc bin: 0 phase: 0.445 value: 2.463448 at 361.905632 '
p886
aS'stimulus draw for phase 0.444649, at 361.915672'
p887
aS'stimulus draw for phase 0.458545, at 362.415418'
p888
aS'signal in feature: Fix ecc bin: 0 phase: 0.472 value: -0.131086 at 362.906050 '
p889
aS'stimulus draw for phase 0.472437, at 362.916301'
p890
aS'stimulus draw for phase 0.486334, at 363.416119'
p891
aS'stimulus draw for phase 0.500230, at 363.916510'
p892
aS'stimulus draw for phase 0.514108, at 364.412388'
p893
aS'stimulus draw for phase 0.528020, at 364.916828'
p894
aS'stimulus draw for phase 0.541915, at 365.417143'
p895
aS'stimulus draw for phase 0.555795, at 365.916861'
p896
aS'stimulus draw for phase 0.569709, at 366.417434'
p897
aS'stimulus draw for phase 0.583602, at 366.917854'
p898
aS'signal in feature: Speed ecc bin: 0 phase: 0.597 value: -2.463448 at 367.408155 '
p899
aS'stimulus draw for phase 0.597496, at 367.418207'
p900
aS'stimulus draw for phase 0.611398, at 367.917333'
p901
aS'stimulus draw for phase 0.625287, at 368.418448'
p902
aS'stimulus draw for phase 0.639183, at 368.918694'
p903
aS'stimulus draw for phase 0.653078, at 369.418967'
p904
aS'stimulus draw for phase 0.666972, at 369.919222'
p905
aS'signal in feature: Color ecc bin: 1 phase: 0.681 value: -0.344628 at 370.409532 '
p906
aS'stimulus draw for phase 0.680869, at 370.421517'
p907
aS'signal in feature: Fix ecc bin: 1 phase: 0.695 value: 0.177431 at 370.909807 '
p908
aS'stimulus draw for phase 0.694763, at 370.919741'
p909
aS'staircase Color bin 1 updated from 0.344628 after response 1 at 371.042696'
p910
aS'trial 5 key: z at time: 371.042732954'
p911
aS'trial 5 event z at 371.042742014'
p912
aS'stimulus draw for phase 0.708658, at 371.419833'
p913
aS'stimulus draw for phase 0.722553, at 371.920086'
p914
aS'stimulus draw for phase 0.736450, at 372.420295'
p915
aS'stimulus draw for phase 0.750345, at 372.920505'
p916
aS'stimulus draw for phase 0.764240, at 373.420712'
p917
aS'stimulus draw for phase 0.778133, at 373.920938'
p918
aS'stimulus draw for phase 0.792031, at 374.421300'
p919
aS'stimulus draw for phase 0.805924, at 374.921372'
p920
aS'stimulus draw for phase 0.819804, at 375.420169'
p921
aS'stimulus draw for phase 0.833716, at 375.921909'
p922
aS'stimulus draw for phase 0.847613, at 376.422182'
p923
aS'signal in feature: Fix ecc bin: 2 phase: 0.862 value: -0.210254 at 376.912535 '
p924
aS'stimulus draw for phase 0.861506, at 376.922445'
p925
aS'signal in feature: Color ecc bin: 3 phase: 0.875 value: -0.190210 at 377.412727 '
p926
aS'stimulus draw for phase 0.875402, at 377.424811'
p927
aS'stimulus draw for phase 0.889296, at 377.922779'
p928
aS'staircase Color bin 3 updated from 0.190210 after response 1 at 378.215070'
p929
aS'trial 5 key: z at time: 378.215108871'
p930
aS'trial 5 event z at 378.215118885'
p931
aS'stimulus draw for phase 0.903192, at 378.422998'
p932
aS'stimulus draw for phase 0.917088, at 378.923235'
p933
aS'stimulus draw for phase 0.930978, at 379.423330'
p934
aS'stimulus draw for phase 0.944877, at 379.923554'
p935
aS'stimulus draw for phase 0.958771, at 380.423786'
p936
aS'stimulus draw for phase 0.972669, at 380.924159'
p937
aS'stimulus draw for phase 0.986566, at 381.424489'
p938
aS'trial 5 phase 4 started at 381.914080858'
p939
aa(lp940
S'trial 6 started at 381.969354868'
p941
aS'trial 6 phase 1 started at 381.969362974'
p942
aS'trial 6 phase 2 started at 381.969367981'
p943
aS'trial 6 phase 3 started at 384.982218027'
p944
aS'stimulus draw for phase 0.000002, at 384.992868'
p945
aS'stimulus draw for phase 0.013896, at 385.492618'
p946
aS'stimulus draw for phase 0.027791, at 385.993262'
p947
aS'stimulus draw for phase 0.041686, at 386.493492'
p948
aS'signal in feature: Fix ecc bin: 3 phase: 0.056 value: -0.131086 at 386.983885 '
p949
aS'stimulus draw for phase 0.055583, at 386.993927'
p950
aS'stimulus draw for phase 0.069476, at 387.493849'
p951
aS'signal in feature: Color ecc bin: 3 phase: 0.083 value: 0.171436 at 387.984259 '
p952
aS'stimulus draw for phase 0.083373, at 387.996024'
p953
aS'stimulus draw for phase 0.097268, at 388.494361'
p954
aS'staircase Color bin 3 updated from 0.171436 after response 1 at 388.836556'
p955
aS'trial 6 key: m at time: 388.836596012'
p956
aS'trial 6 event m at 388.836604834'
p957
aS'stimulus draw for phase 0.111162, at 388.994576'
p958
aS'stimulus draw for phase 0.125057, at 389.494815'
p959
aS'stimulus draw for phase 0.138940, at 389.994396'
p960
aS'stimulus draw for phase 0.152850, at 390.495557'
p961
aS'stimulus draw for phase 0.166744, at 390.995548'
p962
aS'stimulus draw for phase 0.180639, at 391.495853'
p963
aS'signal in feature: Color ecc bin: 2 phase: 0.195 value: 0.171436 at 391.986117 '
p964
aS'stimulus draw for phase 0.194535, at 391.997940'
p965
aS'stimulus draw for phase 0.208429, at 392.496159'
p966
aS'staircase Color bin 2 updated from 0.171436 after response 1 at 392.853053'
p967
aS'trial 6 key: m at time: 392.853093863'
p968
aS'trial 6 event m at 392.853102922'
p969
aS'stimulus draw for phase 0.222320, at 392.996353'
p970
aS'signal in feature: Speed ecc bin: 2 phase: 0.236 value: 1.404142 at 393.486822 '
p971
aS'stimulus draw for phase 0.236220, at 393.496909'
p972
aS'stimulus draw for phase 0.250103, at 393.996412'
p973
aS'stimulus draw for phase 0.263996, at 394.496509'
p974
aS'signal in feature: Fix ecc bin: 1 phase: 0.278 value: 0.177431 at 394.986965 '
p975
aS'stimulus draw for phase 0.277894, at 394.997216'
p976
aS'stimulus draw for phase 0.291788, at 395.496947'
p977
aS'stimulus draw for phase 0.305697, at 395.997831'
p978
aS'stimulus draw for phase 0.319591, at 396.498111'
p979
aS'stimulus draw for phase 0.333488, at 396.998314'
p980
aS'stimulus draw for phase 0.347384, at 397.498642'
p981
aS'stimulus draw for phase 0.361278, at 397.998714'
p982
aS'stimulus draw for phase 0.375173, at 398.498967'
p983
aS'stimulus draw for phase 0.389070, at 398.999355'
p984
aS'signal in feature: Fix ecc bin: 0 phase: 0.403 value: 0.131086 at 399.488973 '
p985
aS'stimulus draw for phase 0.402949, at 399.499092'
p986
aS'stimulus draw for phase 0.416858, at 399.999517'
p987
aS'signal in feature: Speed ecc bin: 0 phase: 0.431 value: -2.463448 at 400.490048 '
p988
aS'stimulus draw for phase 0.430754, at 400.500142'
p989
aS'stimulus draw for phase 0.444651, at 401.000248'
p990
aS'stimulus draw for phase 0.458544, at 401.500404'
p991
aS'stimulus draw for phase 0.472440, at 402.000555'
p992
aS'stimulus draw for phase 0.486336, at 402.501034'
p993
aS'stimulus draw for phase 0.500232, at 403.001085'
p994
aS'stimulus draw for phase 0.514125, at 403.501326'
p995
aS'signal in feature: Speed ecc bin: 0 phase: 0.528 value: -2.463448 at 403.991674 '
p996
aS'stimulus draw for phase 0.528022, at 404.001742'
p997
aS'signal in feature: Fix ecc bin: 0 phase: 0.542 value: -0.131086 at 404.491968 '
p998
aS'stimulus draw for phase 0.541918, at 404.501992'
p999
aS'stimulus draw for phase 0.555799, at 405.001627'
p1000
aS'stimulus draw for phase 0.569707, at 405.502190'
p1001
aS'stimulus draw for phase 0.583603, at 406.002510'
p1002
aS'stimulus draw for phase 0.597498, at 406.502799'
p1003
aS'stimulus draw for phase 0.611391, at 407.002817'
p1004
aS'stimulus draw for phase 0.625288, at 407.503244'
p1005
aS'signal in feature: Speed ecc bin: 1 phase: 0.639 value: -1.404142 at 407.993531 '
p1006
aS'stimulus draw for phase 0.639185, at 408.003597'
p1007
aS'stimulus draw for phase 0.653079, at 408.503639'
p1008
aS'signal in feature: Color ecc bin: 1 phase: 0.667 value: -0.330299 at 408.993929 '
p1009
aS'stimulus draw for phase 0.666975, at 409.005921'
p1010
aS'stimulus draw for phase 0.680870, at 409.504148'
p1011
aS'staircase Color bin 1 updated from 0.330299 after response 1 at 409.879746'
p1012
aS'trial 6 key: z at time: 409.879786015'
p1013
aS'trial 6 event z at 409.879796982'
p1014
aS'stimulus draw for phase 0.694766, at 410.004432'
p1015
aS'signal in feature: Fix ecc bin: 1 phase: 0.709 value: -0.177431 at 410.494671 '
p1016
aS'stimulus draw for phase 0.708659, at 410.504689'
p1017
aS'stimulus draw for phase 0.722556, at 411.004695'
p1018
aS'stimulus draw for phase 0.736451, at 411.504946'
p1019
aS'stimulus draw for phase 0.750346, at 412.005210'
p1020
aS'stimulus draw for phase 0.764241, at 412.505493'
p1021
aS'stimulus draw for phase 0.778138, at 413.005755'
p1022
aS'stimulus draw for phase 0.792031, at 413.505775'
p1023
aS'stimulus draw for phase 0.805924, at 414.006128'
p1024
aS'stimulus draw for phase 0.819822, at 414.506330'
p1025
aS'stimulus draw for phase 0.833720, at 415.006634'
p1026
aS'stimulus draw for phase 0.847612, at 415.506842'
p1027
aS'stimulus draw for phase 0.861508, at 416.007133'
p1028
aS'signal in feature: Speed ecc bin: 3 phase: 0.875 value: 1.972144 at 416.497439 '
p1029
aS'stimulus draw for phase 0.875404, at 416.507444'
p1030
aS'stimulus draw for phase 0.889301, at 417.007554'
p1031
aS'stimulus draw for phase 0.903193, at 417.507813'
p1032
aS'stimulus draw for phase 0.917089, at 418.007917'
p1033
aS'signal in feature: Color ecc bin: 3 phase: 0.931 value: 0.154972 at 418.498222 '
p1034
aS'stimulus draw for phase 0.930983, at 418.510120'
p1035
aS'stimulus draw for phase 0.944880, at 419.008278'
p1036
aS'stimulus draw for phase 0.958775, at 419.508659'
p1037
aS'staircase Color bin 3 updated from 0.154972 after response 1 at 419.716841'
p1038
aS'trial 6 key: m at time: 419.716877937'
p1039
aS'trial 6 event m at 419.716886997'
p1040
aS'stimulus draw for phase 0.972669, at 420.008965'
p1041
aS'stimulus draw for phase 0.986566, at 420.509129'
p1042
aS'trial 6 phase 4 started at 420.998786926'
p1043
aa(lp1044
S'trial 7 started at 421.054851055'
p1045
aS'trial 7 phase 1 started at 421.054857969'
p1046
aS'trial 7 phase 2 started at 421.05486393'
p1047
aS'trial 7 phase 3 started at 424.066877842'
p1048
aS'stimulus draw for phase 0.000002, at 424.077412'
p1049
aS'stimulus draw for phase 0.013896, at 424.577599'
p1050
aS'stimulus draw for phase 0.027791, at 425.077953'
p1051
aS'stimulus draw for phase 0.041688, at 425.578205'
p1052
aS'signal in feature: Color ecc bin: 3 phase: 0.056 value: -0.139846 at 426.068499 '
p1053
aS'stimulus draw for phase 0.055583, at 426.080271'
p1054
aS'stimulus draw for phase 0.069477, at 426.578594'
p1055
aS'stimulus draw for phase 0.083372, at 427.078892'
p1056
aS'staircase Color bin 3 updated from 0.139846 after response 1 at 427.101932'
p1057
aS'trial 7 key: z at time: 427.101971865'
p1058
aS'trial 7 event z at 427.101980925'
p1059
aS'stimulus draw for phase 0.097269, at 427.579105'
p1060
aS'signal in feature: Fix ecc bin: 3 phase: 0.111 value: 0.131086 at 428.069397 '
p1061
aS'stimulus draw for phase 0.111162, at 428.079418'
p1062
aS'signal in feature: Speed ecc bin: 2 phase: 0.125 value: 1.404142 at 428.569679 '
p1063
aS'stimulus draw for phase 0.125060, at 428.579742'
p1064
aS'stimulus draw for phase 0.138953, at 429.079730'
p1065
aS'stimulus draw for phase 0.152851, at 429.580097'
p1066
aS'stimulus draw for phase 0.166744, at 430.080244'
p1067
aS'signal in feature: Color ecc bin: 2 phase: 0.181 value: -0.154972 at 430.570560 '
p1068
aS'stimulus draw for phase 0.180640, at 430.582749'
p1069
aS'signal in feature: Speed ecc bin: 2 phase: 0.195 value: -1.404142 at 431.070827 '
p1070
aS'signal in feature: Fix ecc bin: 2 phase: 0.195 value: -0.210254 at 431.071020 '
p1071
aS'stimulus draw for phase 0.194535, at 431.081008'
p1072
aS'staircase Color bin 2 updated from 0.154972 after response 1 at 431.472874'
p1073
aS'trial 7 key: z at time: 431.47291398'
p1074
aS'trial 7 event z at 431.47292304'
p1075
aS'stimulus draw for phase 0.208418, at 431.580405'
p1076
aS'stimulus draw for phase 0.222325, at 432.081112'
p1077
aS'stimulus draw for phase 0.236222, at 432.581318'
p1078
aS'signal in feature: Speed ecc bin: 1 phase: 0.250 value: -1.404142 at 433.071624 '
p1079
aS'stimulus draw for phase 0.250114, at 433.081605'
p1080
aS'stimulus draw for phase 0.264011, at 433.581772'
p1081
aS'signal in feature: Fix ecc bin: 1 phase: 0.278 value: 0.177431 at 434.072221 '
p1082
aS'stimulus draw for phase 0.277906, at 434.082135'
p1083
aS'stimulus draw for phase 0.291803, at 434.582439'
p1084
aS'stimulus draw for phase 0.305697, at 435.082481'
p1085
aS'stimulus draw for phase 0.319593, at 435.582812'
p1086
aS'signal in feature: Speed ecc bin: 1 phase: 0.333 value: -1.404142 at 436.073120 '
p1087
aS'stimulus draw for phase 0.333488, at 436.083162'
p1088
aS'stimulus draw for phase 0.347385, at 436.583213'
p1089
aS'stimulus draw for phase 0.361278, at 437.083395'
p1090
aS'stimulus draw for phase 0.375174, at 437.583654'
p1091
aS'stimulus draw for phase 0.389070, at 438.083912'
p1092
aS'stimulus draw for phase 0.402971, at 438.583566'
p1093
aS'stimulus draw for phase 0.416859, at 439.084359'
p1094
aS'stimulus draw for phase 0.430756, at 439.584628'
p1095
aS'stimulus draw for phase 0.444651, at 440.084850'
p1096
aS'stimulus draw for phase 0.458544, at 440.585062'
p1097
aS'stimulus draw for phase 0.472441, at 441.085270'
p1098
aS'stimulus draw for phase 0.486337, at 441.585519'
p1099
aS'signal in feature: Color ecc bin: 0 phase: 0.500 value: 0.190210 at 442.075321 '
p1100
aS'signal in feature: Speed ecc bin: 0 phase: 0.500 value: -2.463448 at 442.079023 '
p1101
aS'stimulus draw for phase 0.500219, at 442.087668'
p1102
aS'signal in feature: Fix ecc bin: 0 phase: 0.514 value: 0.131086 at 442.575779 '
p1103
aS'stimulus draw for phase 0.514117, at 442.585736'
p1104
aS'staircase Color bin 0 updated from 0.190210 after response 1 at 442.978212'
p1105
aS'trial 7 key: m at time: 442.97825098'
p1106
aS'trial 7 event m at 442.97826004'
p1107
aS'stimulus draw for phase 0.528016, at 443.085940'
p1108
aS'stimulus draw for phase 0.541919, at 443.586418'
p1109
aS'signal in feature: Color ecc bin: 0 phase: 0.556 value: -0.171436 at 444.076753 '
p1110
aS'stimulus draw for phase 0.555812, at 444.089489'
p1111
aS'stimulus draw for phase 0.569706, at 444.586746'
p1112
aS'staircase Color bin 0 updated from 0.171436 after response 1 at 445.012565'
p1113
aS'trial 7 key: z at time: 445.012603045'
p1114
aS'trial 7 event z at 445.012614012'
p1115
aS'stimulus draw for phase 0.583604, at 445.087179'
p1116
aS'signal in feature: Speed ecc bin: 0 phase: 0.597 value: -2.463448 at 445.577464 '
p1117
aS'stimulus draw for phase 0.597498, at 445.587407'
p1118
aS'stimulus draw for phase 0.611393, at 446.087519'
p1119
aS'stimulus draw for phase 0.625290, at 446.587783'
p1120
aS'signal in feature: Fix ecc bin: 1 phase: 0.639 value: -0.177431 at 447.078215 '
p1121
aS'stimulus draw for phase 0.639185, at 447.088240'
p1122
aS'stimulus draw for phase 0.653078, at 447.588203'
p1123
aS'stimulus draw for phase 0.666974, at 448.088466'
p1124
aS'signal in feature: Speed ecc bin: 1 phase: 0.681 value: -1.404142 at 448.578892 '
p1125
aS'stimulus draw for phase 0.680871, at 448.588934'
p1126
aS'stimulus draw for phase 0.694761, at 449.088751'
p1127
aS'signal in feature: Fix ecc bin: 1 phase: 0.709 value: -0.177431 at 449.579359 '
p1128
aS'stimulus draw for phase 0.708661, at 449.589388'
p1129
aS'stimulus draw for phase 0.722556, at 450.089403'
p1130
aS'stimulus draw for phase 0.736453, at 450.589661'
p1131
aS'stimulus draw for phase 0.750346, at 451.089830'
p1132
aS'stimulus draw for phase 0.764242, at 451.590083'
p1133
aS'stimulus draw for phase 0.778137, at 452.090296'
p1134
aS'stimulus draw for phase 0.792034, at 452.590229'
p1135
aS'stimulus draw for phase 0.805927, at 453.090772'
p1136
aS'stimulus draw for phase 0.819823, at 453.591001'
p1137
aS'signal in feature: Speed ecc bin: 2 phase: 0.834 value: -1.404142 at 454.081442 '
p1138
aS'stimulus draw for phase 0.833719, at 454.091409'
p1139
aS'stimulus draw for phase 0.847613, at 454.591434'
p1140
aS'signal in feature: Color ecc bin: 2 phase: 0.862 value: 0.139846 at 455.081836 '
p1141
aS'stimulus draw for phase 0.861508, at 455.093747'
p1142
aS'stimulus draw for phase 0.875405, at 455.592040'
p1143
aS'staircase Color bin 3 updated from 0.139846 after response 1 at 455.867442'
p1144
aS'trial 7 key: m at time: 455.867480993'
p1145
aS'trial 7 event m at 455.867490053'
p1146
aS'signal in feature: Fix ecc bin: 3 phase: 0.889 value: 0.131086 at 456.082428 '
p1147
aS'stimulus draw for phase 0.889301, at 456.092370'
p1148
aS'stimulus draw for phase 0.903196, at 456.592395'
p1149
aS'signal in feature: Speed ecc bin: 3 phase: 0.917 value: 1.972144 at 457.082822 '
p1150
aS'stimulus draw for phase 0.917090, at 457.092743'
p1151
aS'stimulus draw for phase 0.930986, at 457.592843'
p1152
aS'stimulus draw for phase 0.944880, at 458.093023'
p1153
aS'stimulus draw for phase 0.958776, at 458.593296'
p1154
aS'stimulus draw for phase 0.972670, at 459.093409'
p1155
aS'stimulus draw for phase 0.986568, at 459.593786'
p1156
aS'trial 7 phase 4 started at 460.083446026'
p1157
aa(lp1158
S'trial 8 started at 460.139268875'
p1159
aS'trial 8 phase 1 started at 460.139276981'
p1160
aS'trial 8 phase 2 started at 460.139281988'
p1161
aS'trial 8 phase 3 started at 463.151581049'
p1162
aS'stimulus draw for phase 0.000002, at 463.162102'
p1163
aS'stimulus draw for phase 0.013893, at 463.662165'
p1164
aS'stimulus draw for phase 0.027791, at 464.162640'
p1165
aS'stimulus draw for phase 0.041686, at 464.662819'
p1166
aS'signal in feature: Speed ecc bin: 3 phase: 0.056 value: -1.972144 at 465.153188 '
p1167
aS'stimulus draw for phase 0.055582, at 465.163152'
p1168
aS'signal in feature: Color ecc bin: 3 phase: 0.069 value: 0.126743 at 465.653368 '
p1169
aS'stimulus draw for phase 0.069476, at 465.663433'
p1170
aS'stimulus draw for phase 0.083373, at 466.163520'
p1171
aS'stimulus draw for phase 0.097268, at 466.663682'
p1172
aS'stimulus draw for phase 0.111158, at 467.163707'
p1173
aS'stimulus draw for phase 0.125058, at 467.664202'
p1174
aS'stimulus draw for phase 0.138954, at 468.164461'
p1175
aS'stimulus draw for phase 0.152854, at 468.663948'
p1176
aS'signal in feature: Color ecc bin: 2 phase: 0.167 value: -0.126743 at 469.155035 '
p1177
aS'signal in feature: Speed ecc bin: 2 phase: 0.167 value: 1.404142 at 469.155219 '
p1178
aS'stimulus draw for phase 0.166745, at 469.165178'
p1179
aS'stimulus draw for phase 0.180639, at 469.665129'
p1180
aS'stimulus draw for phase 0.194536, at 470.165347'
p1181
aS'stimulus draw for phase 0.208429, at 470.665581'
p1182
aS'signal in feature: Speed ecc bin: 2 phase: 0.222 value: 1.404142 at 471.155959 '
p1183
aS'signal in feature: Fix ecc bin: 2 phase: 0.222 value: -0.210254 at 471.156148 '
p1184
aS'stimulus draw for phase 0.222326, at 471.167782'
p1185
aS'stimulus draw for phase 0.236209, at 471.665522'
p1186
aS'staircase Fix bin 2 updated from 0.210254 after response 1 at 472.075053'
p1187
aS'trial 8 key: z at time: 472.075093031'
p1188
aS'trial 8 event z at 472.075101852'
p1189
aS'stimulus draw for phase 0.250117, at 472.166249'
p1190
aS'stimulus draw for phase 0.264010, at 472.666447'
p1191
aS'signal in feature: Speed ecc bin: 1 phase: 0.278 value: -1.404142 at 473.156890 '
p1192
aS'stimulus draw for phase 0.277907, at 473.166839'
p1193
aS'stimulus draw for phase 0.291800, at 473.665890'
p1194
aS'stimulus draw for phase 0.305696, at 474.167168'
p1195
aS'stimulus draw for phase 0.319592, at 474.667416'
p1196
aS'signal in feature: Color ecc bin: 1 phase: 0.333 value: 0.318567 at 475.157176 '
p1197
aS'stimulus draw for phase 0.333474, at 475.167273'
p1198
aS'stimulus draw for phase 0.347369, at 475.667205'
p1199
aS'signal in feature: Speed ecc bin: 1 phase: 0.361 value: 1.404142 at 476.158258 '
p1200
aS'stimulus draw for phase 0.361278, at 476.168307'
p1201
aS'stimulus draw for phase 0.375173, at 476.668286'
p1202
aS'stimulus draw for phase 0.389070, at 477.168577'
p1203
aS'stimulus draw for phase 0.402963, at 477.668730'
p1204
aS'stimulus draw for phase 0.416859, at 478.169071'
p1205
aS'stimulus draw for phase 0.430754, at 478.669213'
p1206
aS'stimulus draw for phase 0.444651, at 479.169555'
p1207
aS'stimulus draw for phase 0.458544, at 479.669676'
p1208
aS'stimulus draw for phase 0.472441, at 480.169964'
p1209
aS'stimulus draw for phase 0.486336, at 480.670166'
p1210
aS'stimulus draw for phase 0.500228, at 481.170225'
p1211
aS'stimulus draw for phase 0.514126, at 481.670609'
p1212
aS'stimulus draw for phase 0.528022, at 482.170849'
p1213
aS'stimulus draw for phase 0.541917, at 482.671076'
p1214
aS'stimulus draw for phase 0.555812, at 483.171406'
p1215
aS'stimulus draw for phase 0.569707, at 483.671590'
p1216
aS'stimulus draw for phase 0.583604, at 484.171823'
p1217
aS'signal in feature: Color ecc bin: 0 phase: 0.597 value: 0.154972 at 484.661497 '
p1218
aS'stimulus draw for phase 0.597483, at 484.671611'
p1219
aS'stimulus draw for phase 0.611379, at 485.171594'
p1220
aS'stimulus draw for phase 0.625288, at 485.672571'
p1221
aS'signal in feature: Speed ecc bin: 1 phase: 0.639 value: -1.404142 at 486.162896 '
p1222
aS'stimulus draw for phase 0.639185, at 486.172864'
p1223
aS'stimulus draw for phase 0.653078, at 486.673038'
p1224
aS'stimulus draw for phase 0.666974, at 487.173147'
p1225
aS'stimulus draw for phase 0.680870, at 487.673486'
p1226
aS'stimulus draw for phase 0.694764, at 488.173689'
p1227
aS'stimulus draw for phase 0.708659, at 488.673838'
p1228
aS'stimulus draw for phase 0.722556, at 489.174080'
p1229
aS'stimulus draw for phase 0.736455, at 489.673073'
p1230
aS'signal in feature: Speed ecc bin: 2 phase: 0.750 value: -1.404142 at 490.164702 '
p1231
aS'stimulus draw for phase 0.750346, at 490.174669'
p1232
aS'stimulus draw for phase 0.764241, at 490.674804'
p1233
aS'stimulus draw for phase 0.778137, at 491.175111'
p1234
aS'stimulus draw for phase 0.792035, at 491.674998'
p1235
aS'stimulus draw for phase 0.805927, at 492.175445'
p1236
aS'stimulus draw for phase 0.819821, at 492.675648'
p1237
aS'stimulus draw for phase 0.833708, at 493.175635'
p1238
aS'stimulus draw for phase 0.847613, at 493.676130'
p1239
aS'stimulus draw for phase 0.861509, at 494.176385'
p1240
aS'stimulus draw for phase 0.875404, at 494.676773'
p1241
aS'stimulus draw for phase 0.889300, at 495.176878'
p1242
aS'stimulus draw for phase 0.903193, at 495.677147'
p1243
aS'stimulus draw for phase 0.917090, at 496.177309'
p1244
aS'stimulus draw for phase 0.930985, at 496.677562'
p1245
aS'stimulus draw for phase 0.944880, at 497.177730'
p1246
aS'stimulus draw for phase 0.958775, at 497.678114'
p1247
aS'stimulus draw for phase 0.972672, at 498.178290'
p1248
aS'stimulus draw for phase 0.986566, at 498.678481'
p1249
aS'trial 8 phase 4 started at 499.168163061'
p1250
aa(lp1251
S'trial 9 started at 499.224477053'
p1252
aS'trial 9 phase 1 started at 499.224484921'
p1253
aS'trial 9 phase 2 started at 499.224489927'
p1254
aS'trial 9 phase 3 started at 502.236269951'
p1255
aS'stimulus draw for phase 0.000002, at 502.246879'
p1256
aS'stimulus draw for phase 0.013896, at 502.747115'
p1257
aS'stimulus draw for phase 0.027790, at 503.247318'
p1258
aS'stimulus draw for phase 0.041687, at 503.747562'
p1259
aS'stimulus draw for phase 0.055580, at 504.247735'
p1260
aS'stimulus draw for phase 0.069477, at 504.747999'
p1261
aS'stimulus draw for phase 0.083372, at 505.248244'
p1262
aS'stimulus draw for phase 0.097268, at 505.748484'
p1263
aS'stimulus draw for phase 0.111161, at 506.248594'
p1264
aS'stimulus draw for phase 0.125059, at 506.748976'
p1265
aS'stimulus draw for phase 0.138954, at 507.249197'
p1266
aS'signal in feature: Fix ecc bin: 2 phase: 0.153 value: -0.203841 at 507.739476 '
p1267
aS'stimulus draw for phase 0.152848, at 507.751838'
p1268
aS'signal in feature: Speed ecc bin: 2 phase: 0.167 value: -1.404142 at 508.239693 '
p1269
aS'stimulus draw for phase 0.166743, at 508.249735'
p1270
aS'staircase Fix bin 2 updated from 0.203841 after response 1 at 508.489423'
p1271
aS'trial 9 key: z at time: 508.489460945'
p1272
aS'trial 9 event z at 508.489470959'
p1273
aS'stimulus draw for phase 0.180639, at 508.749885'
p1274
aS'stimulus draw for phase 0.194534, at 509.249977'
p1275
aS'stimulus draw for phase 0.208429, at 509.750217'
p1276
aS'signal in feature: Color ecc bin: 2 phase: 0.222 value: 0.126743 at 510.240586 '
p1277
aS'signal in feature: Fix ecc bin: 2 phase: 0.222 value: 0.197583 at 510.240811 '
p1278
aS'stimulus draw for phase 0.222324, at 510.252412'
p1279
aS'stimulus draw for phase 0.236221, at 510.750695'
p1280
aS'staircase Fix bin 2 updated from 0.197583 after response 1 at 510.890465'
p1281
aS'trial 9 key: m at time: 510.89050293'
p1282
aS'trial 9 event m at 510.89051199'
p1283
aS'stimulus draw for phase 0.250114, at 511.250969'
p1284
aS'stimulus draw for phase 0.264011, at 511.751222'
p1285
aS'signal in feature: Fix ecc bin: 1 phase: 0.278 value: 0.177431 at 512.241619 '
p1286
aS'stimulus draw for phase 0.277907, at 512.253789'
p1287
aS'stimulus draw for phase 0.291798, at 512.751482'
p1288
aS'stimulus draw for phase 0.305695, at 513.251812'
p1289
aS'staircase Fix bin 1 updated from 0.177431 after response 1 at 513.275397'
p1290
aS'trial 9 key: m at time: 513.275439978'
p1291
aS'trial 9 event m at 513.275449991'
p1292
aS'stimulus draw for phase 0.319592, at 513.752062'
p1293
aS'stimulus draw for phase 0.333487, at 514.252326'
p1294
aS'stimulus draw for phase 0.347382, at 514.752491'
p1295
aS'stimulus draw for phase 0.361277, at 515.252731'
p1296
aS'stimulus draw for phase 0.375174, at 515.753040'
p1297
aS'signal in feature: Color ecc bin: 0 phase: 0.389 value: 0.154972 at 516.243427 '
p1298
aS'stimulus draw for phase 0.389070, at 516.253808'
p1299
aS'stimulus draw for phase 0.402963, at 516.753444'
p1300
aS'signal in feature: Speed ecc bin: 0 phase: 0.417 value: -2.463448 at 517.243858 '
p1301
aS'stimulus draw for phase 0.416859, at 517.253827'
p1302
aS'signal in feature: Fix ecc bin: 0 phase: 0.431 value: 0.131086 at 517.744158 '
p1303
aS'stimulus draw for phase 0.430755, at 517.755927'
p1304
aS'stimulus draw for phase 0.444650, at 518.254248'
p1305
aS'staircase Fix bin 0 updated from 0.131086 after response 1 at 518.529750'
p1306
aS'trial 9 key: m at time: 518.529789925'
p1307
aS'trial 9 event m at 518.529799938'
p1308
aS'stimulus draw for phase 0.458531, at 518.753722'
p1309
aS'signal in feature: Speed ecc bin: 0 phase: 0.472 value: -2.463448 at 519.244776 '
p1310
aS'stimulus draw for phase 0.472440, at 519.254704'
p1311
aS'signal in feature: Fix ecc bin: 0 phase: 0.486 value: 0.120000 at 519.745056 '
p1312
aS'stimulus draw for phase 0.486336, at 519.757113'
p1313
aS'stimulus draw for phase 0.500230, at 520.255035'
p1314
aS'staircase Fix bin 0 updated from 0.120000 after response 1 at 520.513881'
p1315
aS'trial 9 key: m at time: 520.513921022'
p1316
aS'trial 9 event m at 520.513931036'
p1317
aS'stimulus draw for phase 0.514124, at 520.755203'
p1318
aS'signal in feature: Speed ecc bin: 0 phase: 0.528 value: -2.463448 at 521.245726 '
p1319
aS'stimulus draw for phase 0.528021, at 521.255695'
p1320
aS'stimulus draw for phase 0.541906, at 521.755221'
p1321
aS'stimulus draw for phase 0.555811, at 522.256008'
p1322
aS'stimulus draw for phase 0.569707, at 522.756137'
p1323
aS'stimulus draw for phase 0.583602, at 523.256446'
p1324
aS'signal in feature: Color ecc bin: 0 phase: 0.597 value: -0.154972 at 523.746840 '
p1325
aS'stimulus draw for phase 0.597498, at 523.756829'
p1326
aS'signal in feature: Speed ecc bin: 0 phase: 0.611 value: -2.463448 at 524.246450 '
p1327
aS'stimulus draw for phase 0.611379, at 524.256390'
p1328
aS'stimulus draw for phase 0.625289, at 524.757207'
p1329
aS'stimulus draw for phase 0.639184, at 525.257421'
p1330
aS'stimulus draw for phase 0.653079, at 525.757630'
p1331
aS'signal in feature: Fix ecc bin: 1 phase: 0.667 value: -0.171414 at 526.248003 '
p1332
aS'stimulus draw for phase 0.666974, at 526.260183'
p1333
aS'stimulus draw for phase 0.680868, at 526.757903'
p1334
aS'staircase Fix bin 1 updated from 0.171414 after response 1 at 527.033018'
p1335
aS'trial 9 key: z at time: 527.033055067'
p1336
aS'trial 9 event z at 527.033064842'
p1337
aS'stimulus draw for phase 0.694765, at 527.258316'
p1338
aS'stimulus draw for phase 0.708660, at 527.758526'
p1339
aS'stimulus draw for phase 0.722555, at 528.258714'
p1340
aS'stimulus draw for phase 0.736452, at 528.759013'
p1341
aS'signal in feature: Color ecc bin: 2 phase: 0.750 value: 0.126743 at 529.249373 '
p1342
aS'stimulus draw for phase 0.750346, at 529.259481'
p1343
aS'stimulus draw for phase 0.764241, at 529.759432'
p1344
aS'stimulus draw for phase 0.778136, at 530.259734'
p1345
aS'stimulus draw for phase 0.792033, at 530.759974'
p1346
aS'stimulus draw for phase 0.805926, at 531.260117'
p1347
aS'stimulus draw for phase 0.819823, at 531.760343'
p1348
aS'signal in feature: Fix ecc bin: 2 phase: 0.834 value: -0.192079 at 532.250843 '
p1349
aS'stimulus draw for phase 0.833718, at 532.263263'
p1350
aS'stimulus draw for phase 0.847613, at 532.760782'
p1351
aS'staircase Fix bin 2 updated from 0.192079 after response 1 at 533.103101'
p1352
aS'trial 9 key: z at time: 533.103140831'
p1353
aS'trial 9 event z at 533.103149891'
p1354
aS'stimulus draw for phase 0.861508, at 533.261060'
p1355
aS'stimulus draw for phase 0.875404, at 533.761290'
p1356
aS'signal in feature: Color ecc bin: 3 phase: 0.889 value: -0.126743 at 534.251694 '
p1357
aS'stimulus draw for phase 0.889299, at 534.261770'
p1358
aS'stimulus draw for phase 0.903194, at 534.761761'
p1359
aS'stimulus draw for phase 0.917090, at 535.261971'
p1360
aS'stimulus draw for phase 0.930986, at 535.762238'
p1361
aS'stimulus draw for phase 0.944879, at 536.262437'
p1362
aS'stimulus draw for phase 0.958776, at 536.762679'
p1363
aS'stimulus draw for phase 0.972657, at 537.262236'
p1364
aS'stimulus draw for phase 0.986567, at 537.763177'
p1365
aS'trial 9 phase 4 started at 538.252800941'
p1366
aa(lp1367
S'trial 10 started at 538.309257984'
p1368
aS'trial 10 phase 1 started at 538.309267044'
p1369
aS'trial 10 phase 2 started at 538.309270859'
p1370
aS'trial 10 phase 3 started at 541.320957899'
p1371
aS'stimulus draw for phase 0.000002, at 541.331666'
p1372
aS'stimulus draw for phase 0.013895, at 541.831819'
p1373
aS'stimulus draw for phase 0.027791, at 542.332024'
p1374
aS'stimulus draw for phase 0.041686, at 542.832281'
p1375
aS'signal in feature: Color ecc bin: 3 phase: 0.056 value: 0.126743 at 543.322430 '
p1376
aS'stimulus draw for phase 0.055579, at 543.334730'
p1377
aS'signal in feature: Fix ecc bin: 3 phase: 0.069 value: 0.131086 at 543.822780 '
p1378
aS'stimulus draw for phase 0.069475, at 543.832790'
p1379
aS'stimulus draw for phase 0.083372, at 544.332855'
p1380
aS'signal in feature: Speed ecc bin: 3 phase: 0.097 value: 1.972144 at 544.823279 '
p1381
aS'stimulus draw for phase 0.097268, at 544.833315'
p1382
aS'staircase Color bin 3 updated from 0.126743 after response 1 at 545.039728'
p1383
aS'trial 10 key: m at time: 545.039767027'
p1384
aS'trial 10 event m at 545.03977704'
p1385
aS'stimulus draw for phase 0.111162, at 545.333370'
p1386
aS'stimulus draw for phase 0.125057, at 545.833515'
p1387
aS'stimulus draw for phase 0.138953, at 546.333868'
p1388
aS'signal in feature: Fix ecc bin: 2 phase: 0.153 value: -0.186534 at 546.823912 '
p1389
aS'stimulus draw for phase 0.152841, at 546.833947'
p1390
aS'stimulus draw for phase 0.166744, at 547.334261'
p1391
aS'signal in feature: Speed ecc bin: 2 phase: 0.181 value: 1.404142 at 547.824616 '
p1392
aS'stimulus draw for phase 0.180638, at 547.834729'
p1393
aS'stimulus draw for phase 0.194535, at 548.334819'
p1394
aS'stimulus draw for phase 0.208428, at 548.835060'
p1395
aS'stimulus draw for phase 0.222325, at 549.335173'
p1396
aS'stimulus draw for phase 0.236218, at 549.835221'
p1397
aS'stimulus draw for phase 0.250117, at 550.335756'
p1398
aS'signal in feature: Color ecc bin: 1 phase: 0.264 value: 0.318567 at 550.825954 '
p1399
aS'signal in feature: Fix ecc bin: 1 phase: 0.264 value: 0.165524 at 550.829575 '
p1400
aS'stimulus draw for phase 0.264010, at 550.837704'
p1401
aS'stimulus draw for phase 0.277906, at 551.336060'
p1402
aS'staircase Color bin 1 updated from 0.318567 after response 1 at 551.678330'
p1403
aS'trial 10 key: m at time: 551.678369999'
p1404
aS'trial 10 event m at 551.678380013'
p1405
aS'signal in feature: Speed ecc bin: 1 phase: 0.292 value: 1.404142 at 551.827002 '
p1406
aS'stimulus draw for phase 0.291800, at 551.836813'
p1407
aS'stimulus draw for phase 0.305696, at 552.336628'
p1408
aS'stimulus draw for phase 0.319591, at 552.836852'
p1409
aS'stimulus draw for phase 0.333488, at 553.337090'
p1410
aS'signal in feature: Fix ecc bin: 1 phase: 0.347 value: -0.165524 at 553.826817 '
p1411
aS'stimulus draw for phase 0.347368, at 553.836945'
p1412
aS'stimulus draw for phase 0.361278, at 554.337453'
p1413
aS'stimulus draw for phase 0.375172, at 554.837770'
p1414
aS'stimulus draw for phase 0.389055, at 555.337483'
p1415
aS'stimulus draw for phase 0.402962, at 555.838210'
p1416
aS'signal in feature: Speed ecc bin: 0 phase: 0.417 value: 2.463448 at 556.327577 '
p1417
aS'stimulus draw for phase 0.416840, at 556.334852'
p1418
aS'signal in feature: Color ecc bin: 0 phase: 0.431 value: -0.154972 at 556.828746 '
p1419
aS'signal in feature: Fix ecc bin: 0 phase: 0.431 value: 0.109960 at 556.832528 '
p1420
aS'stimulus draw for phase 0.430754, at 556.840980'
p1421
aS'stimulus draw for phase 0.444632, at 557.336093'
p1422
aS'staircase Color bin 0 updated from 0.154972 after response 1 at 557.797729'
p1423
aS'trial 10 key: z at time: 557.797768831'
p1424
aS'trial 10 event z at 557.797777891'
p1425
aS'stimulus draw for phase 0.458542, at 557.838948'
p1426
aS'stimulus draw for phase 0.472440, at 558.339286'
p1427
aS'stimulus draw for phase 0.486336, at 558.839584'
p1428
aS'stimulus draw for phase 0.500230, at 559.339774'
p1429
aS'stimulus draw for phase 0.514125, at 559.839939'
p1430
aS'stimulus draw for phase 0.528022, at 560.340338'
p1431
aS'signal in feature: Fix ecc bin: 0 phase: 0.542 value: 0.109960 at 560.830668 '
p1432
aS'stimulus draw for phase 0.541916, at 560.840675'
p1433
aS'stimulus draw for phase 0.555812, at 561.340587'
p1434
aS'stimulus draw for phase 0.569706, at 561.840986'
p1435
aS'stimulus draw for phase 0.583603, at 562.341282'
p1436
aS'signal in feature: Speed ecc bin: 0 phase: 0.597 value: -2.463448 at 562.831572 '
p1437
aS'stimulus draw for phase 0.597498, at 562.841690'
p1438
aS'stimulus draw for phase 0.611393, at 563.341723'
p1439
aS'stimulus draw for phase 0.625288, at 563.841815'
p1440
aS'stimulus draw for phase 0.639184, at 564.342206'
p1441
aS'signal in feature: Color ecc bin: 1 phase: 0.653 value: -0.308444 at 564.832408 '
p1442
aS'stimulus draw for phase 0.653078, at 564.844187'
p1443
aS'stimulus draw for phase 0.666974, at 565.342491'
p1444
aS'staircase Color bin 1 updated from 0.308444 after response 1 at 565.701375'
p1445
aS'trial 10 key: z at time: 565.70141387'
p1446
aS'trial 10 event z at 565.70142293'
p1447
aS'stimulus draw for phase 0.680867, at 565.843030'
p1448
aS'stimulus draw for phase 0.694764, at 566.342885'
p1449
aS'stimulus draw for phase 0.708659, at 566.843212'
p1450
aS'signal in feature: Fix ecc bin: 1 phase: 0.723 value: -0.165524 at 567.333651 '
p1451
aS'stimulus draw for phase 0.722556, at 567.343911'
p1452
aS'stimulus draw for phase 0.736457, at 567.843043'
p1453
aS'stimulus draw for phase 0.750345, at 568.343920'
p1454
aS'stimulus draw for phase 0.764240, at 568.844206'
p1455
aS'stimulus draw for phase 0.778123, at 569.343898'
p1456
aS'stimulus draw for phase 0.792032, at 569.844726'
p1457
aS'stimulus draw for phase 0.805927, at 570.344883'
p1458
aS'stimulus draw for phase 0.819822, at 570.845050'
p1459
aS'stimulus draw for phase 0.833719, at 571.345399'
p1460
aS'signal in feature: Speed ecc bin: 2 phase: 0.848 value: -1.404142 at 571.835674 '
p1461
aS'stimulus draw for phase 0.847612, at 571.845659'
p1462
aS'stimulus draw for phase 0.861509, at 572.345792'
p1463
aS'stimulus draw for phase 0.875404, at 572.845945'
p1464
aS'stimulus draw for phase 0.889300, at 573.346264'
p1465
aS'stimulus draw for phase 0.903193, at 573.846431'
p1466
aS'signal in feature: Color ecc bin: 3 phase: 0.917 value: 0.115083 at 574.336823 '
p1467
aS'signal in feature: Fix ecc bin: 3 phase: 0.917 value: -0.131086 at 574.340455 '
p1468
aS'stimulus draw for phase 0.917090, at 574.348915'
p1469
aS'signal in feature: Speed ecc bin: 3 phase: 0.931 value: 1.972144 at 574.837083 '
p1470
aS'stimulus draw for phase 0.930984, at 574.847103'
p1471
aS'staircase Color bin 3 updated from 0.115083 after response 1 at 575.139112'
p1472
aS'trial 10 key: m at time: 575.139150858'
p1473
aS'trial 10 event m at 575.139160872'
p1474
aS'stimulus draw for phase 0.944879, at 575.347111'
p1475
aS'stimulus draw for phase 0.958775, at 575.847306'
p1476
aS'stimulus draw for phase 0.972671, at 576.347587'
p1477
aS'stimulus draw for phase 0.986566, at 576.847880'
p1478
aS'trial 10 phase 4 started at 577.337513924'
p1479
aa(lp1480
S'trial 11 started at 577.393549919'
p1481
aS'trial 11 phase 1 started at 577.393558025'
p1482
aS'trial 11 phase 2 started at 577.393563032'
p1483
aS'trial 11 phase 3 started at 580.405599833'
p1484
aS'stimulus draw for phase 0.000002, at 580.416182'
p1485
aS'stimulus draw for phase 0.013896, at 580.916413'
p1486
aS'stimulus draw for phase 0.027790, at 581.416671'
p1487
aS'stimulus draw for phase 0.041688, at 581.916953'
p1488
aS'signal in feature: Color ecc bin: 3 phase: 0.056 value: -0.104438 at 582.407161 '
p1489
aS'signal in feature: Fix ecc bin: 3 phase: 0.056 value: 0.131086 at 582.407385 '
p1490
aS'stimulus draw for phase 0.055581, at 582.419250'
p1491
aS'stimulus draw for phase 0.069477, at 582.917249'
p1492
aS'stimulus draw for phase 0.083373, at 583.417559'
p1493
aS'staircase Fix bin 3 updated from 0.131086 after response 1 at 583.593116'
p1494
aS'trial 11 key: m at time: 583.593154907'
p1495
aS'trial 11 event m at 583.593164921'
p1496
aS'signal in feature: Speed ecc bin: 3 phase: 0.097 value: -1.972144 at 583.907942 '
p1497
aS'stimulus draw for phase 0.097269, at 583.917933'
p1498
aS'signal in feature: Fix ecc bin: 3 phase: 0.111 value: -0.120000 at 584.408154 '
p1499
aS'stimulus draw for phase 0.111163, at 584.420542'
p1500
aS'stimulus draw for phase 0.125057, at 584.918046'
p1501
aS'staircase Fix bin 2 updated from 0.120000 after response 1 at 585.260504'
p1502
aS'trial 11 key: z at time: 585.260545015'
p1503
aS'trial 11 event z at 585.260553837'
p1504
aS'stimulus draw for phase 0.138955, at 585.418611'
p1505
aS'stimulus draw for phase 0.152848, at 585.918653'
p1506
aS'stimulus draw for phase 0.166744, at 586.418953'
p1507
aS'stimulus draw for phase 0.180640, at 586.919312'
p1508
aS'stimulus draw for phase 0.194536, at 587.419461'
p1509
aS'stimulus draw for phase 0.208430, at 587.919614'
p1510
aS'stimulus draw for phase 0.222325, at 588.419829'
p1511
aS'signal in feature: Color ecc bin: 2 phase: 0.236 value: 0.126743 at 588.910200 '
p1512
aS'stimulus draw for phase 0.236221, at 588.920200'
p1513
aS'signal in feature: Fix ecc bin: 1 phase: 0.250 value: 0.165524 at 589.410448 '
p1514
aS'stimulus draw for phase 0.250115, at 589.422186'
p1515
aS'stimulus draw for phase 0.264012, at 589.920557'
p1516
aS'staircase Fix bin 1 updated from 0.165524 after response 1 at 590.046093'
p1517
aS'trial 11 key: m at time: 590.046133041'
p1518
aS'trial 11 event m at 590.046141863'
p1519
aS'stimulus draw for phase 0.277907, at 590.420783'
p1520
aS'signal in feature: Speed ecc bin: 1 phase: 0.292 value: 1.404142 at 590.911161 '
p1521
aS'stimulus draw for phase 0.291803, at 590.921213'
p1522
aS'stimulus draw for phase 0.305697, at 591.421142'
p1523
aS'stimulus draw for phase 0.319593, at 591.921412'
p1524
aS'stimulus draw for phase 0.333490, at 592.421723'
p1525
aS'stimulus draw for phase 0.347384, at 592.921946'
p1526
aS'stimulus draw for phase 0.361279, at 593.422119'
p1527
aS'stimulus draw for phase 0.375174, at 593.922345'
p1528
aS'stimulus draw for phase 0.389071, at 594.422656'
p1529
aS'stimulus draw for phase 0.402964, at 594.922810'
p1530
aS'stimulus draw for phase 0.416860, at 595.423020'
p1531
aS'signal in feature: Color ecc bin: 0 phase: 0.431 value: 0.139846 at 595.913425 '
p1532
aS'stimulus draw for phase 0.430755, at 595.923483'
p1533
aS'signal in feature: Fix ecc bin: 0 phase: 0.445 value: 0.109960 at 596.413772 '
p1534
aS'stimulus draw for phase 0.444652, at 596.426766'
p1535
aS'signal in feature: Speed ecc bin: 0 phase: 0.459 value: 2.463448 at 596.913888 '
p1536
aS'stimulus draw for phase 0.458545, at 596.923855'
p1537
aS'staircase Fix bin 0 updated from 0.109960 after response 1 at 597.232678'
p1538
aS'trial 11 key: m at time: 597.232717991'
p1539
aS'trial 11 event m at 597.232728004'
p1540
aS'stimulus draw for phase 0.472440, at 597.424056'
p1541
aS'stimulus draw for phase 0.486335, at 597.923431'
p1542
aS'stimulus draw for phase 0.500230, at 598.424399'
p1543
aS'signal in feature: Fix ecc bin: 0 phase: 0.514 value: -0.100667 at 598.914873 '
p1544
aS'stimulus draw for phase 0.514127, at 598.926754'
p1545
aS'signal in feature: Speed ecc bin: 0 phase: 0.528 value: -2.463448 at 599.415068 '
p1546
aS'stimulus draw for phase 0.528022, at 599.425100'
p1547
aS'staircase Fix bin 0 updated from 0.100667 after response 1 at 599.583849'
p1548
aS'trial 11 key: z at time: 599.583888054'
p1549
aS'trial 11 event z at 599.583896875'
p1550
aS'stimulus draw for phase 0.541921, at 599.921694'
p1551
aS'stimulus draw for phase 0.555812, at 600.425307'
p1552
aS'stimulus draw for phase 0.569708, at 600.925603'
p1553
aS'stimulus draw for phase 0.583603, at 601.425810'
p1554
aS'signal in feature: Color ecc bin: 0 phase: 0.598 value: -0.139846 at 601.916231 '
p1555
aS'stimulus draw for phase 0.597501, at 601.926184'
p1556
aS'stimulus draw for phase 0.611393, at 602.426258'
p1557
aS'stimulus draw for phase 0.625289, at 602.926498'
p1558
aS'stimulus draw for phase 0.639183, at 603.426592'
p1559
aS'stimulus draw for phase 0.653080, at 603.926669'
p1560
aS'signal in feature: Fix ecc bin: 1 phase: 0.667 value: 0.160367 at 604.417401 '
p1561
aS'stimulus draw for phase 0.666975, at 604.429647'
p1562
aS'stimulus draw for phase 0.680872, at 604.927455'
p1563
aS'staircase Fix bin 1 updated from 0.160367 after response 1 at 605.088234'
p1564
aS'trial 11 key: m at time: 605.088268042'
p1565
aS'trial 11 event m at 605.088276863'
p1566
aS'stimulus draw for phase 0.694765, at 605.427580'
p1567
aS'signal in feature: Speed ecc bin: 1 phase: 0.709 value: 1.404142 at 605.918078 '
p1568
aS'stimulus draw for phase 0.708661, at 605.928010'
p1569
aS'signal in feature: Color ecc bin: 1 phase: 0.723 value: 0.299373 at 606.418273 '
p1570
aS'stimulus draw for phase 0.722557, at 606.428232'
p1571
aS'stimulus draw for phase 0.736453, at 606.928384'
p1572
aS'stimulus draw for phase 0.750346, at 607.428577'
p1573
aS'signal in feature: Fix ecc bin: 2 phase: 0.764 value: -0.186534 at 607.918293 '
p1574
aS'stimulus draw for phase 0.764229, at 607.927703'
p1575
aS'stimulus draw for phase 0.778138, at 608.429061'
p1576
aS'staircase Fix bin 2 updated from 0.186534 after response 1 at 608.455857'
p1577
aS'trial 11 key: z at time: 608.455890894'
p1578
aS'trial 11 event z at 608.455899'
p1579
aS'stimulus draw for phase 0.792032, at 608.929152'
p1580
aS'signal in feature: Color ecc bin: 2 phase: 0.806 value: 0.126743 at 609.419654 '
p1581
aS'stimulus draw for phase 0.805928, at 609.429633'
p1582
aS'signal in feature: Speed ecc bin: 2 phase: 0.820 value: -1.404142 at 609.919923 '
p1583
aS'stimulus draw for phase 0.819824, at 609.929844'
p1584
aS'stimulus draw for phase 0.833719, at 610.430003'
p1585
aS'stimulus draw for phase 0.847613, at 610.929361'
p1586
aS'stimulus draw for phase 0.861509, at 611.430372'
p1587
aS'signal in feature: Color ecc bin: 3 phase: 0.875 value: -0.104438 at 611.920804 '
p1588
aS'signal in feature: Fix ecc bin: 3 phase: 0.875 value: 0.109960 at 611.921023 '
p1589
aS'stimulus draw for phase 0.875405, at 611.932713'
p1590
aS'stimulus draw for phase 0.889298, at 612.430769'
p1591
aS'staircase Fix bin 3 updated from 0.109960 after response 1 at 612.624283'
p1592
aS'trial 11 key: m at time: 612.624316931'
p1593
aS'trial 11 event m at 612.624325991'
p1594
aS'signal in feature: Speed ecc bin: 3 phase: 0.903 value: 1.972144 at 612.921283 '
p1595
aS'stimulus draw for phase 0.903194, at 612.931202'
p1596
aS'stimulus draw for phase 0.917090, at 613.431306'
p1597
aS'signal in feature: Fix ecc bin: 3 phase: 0.931 value: 0.100667 at 613.921769 '
p1598
aS'stimulus draw for phase 0.930986, at 613.934029'
p1599
aS'stimulus draw for phase 0.944882, at 614.431662'
p1600
aS'staircase Fix bin 3 updated from 0.100667 after response 1 at 614.792154'
p1601
aS'trial 11 key: m at time: 614.792192936'
p1602
aS'trial 11 event m at 614.79220295'
p1603
aS'stimulus draw for phase 0.958777, at 614.932035'
p1604
aS'stimulus draw for phase 0.972672, at 615.432234'
p1605
aS'stimulus draw for phase 0.986566, at 615.932459'
p1606
aS'trial 11 phase 4 started at 616.422262907'
p1607
aa(lp1608
S'trial 12 started at 616.477815866'
p1609
aS'trial 12 phase 1 started at 616.477823973'
p1610
aS'trial 12 phase 2 started at 616.477828979'
p1611
aS'trial 12 phase 3 started at 619.490218878'
p1612
aS'stimulus draw for phase 0.000002, at 619.500997'
p1613
aS'stimulus draw for phase 0.013898, at 620.001007'
p1614
aS'stimulus draw for phase 0.027780, at 620.500760'
p1615
aS'signal in feature: Color ecc bin: 3 phase: 0.042 value: -0.104438 at 620.991660 '
p1616
aS'stimulus draw for phase 0.041689, at 621.001715'
p1617
aS'signal in feature: Speed ecc bin: 3 phase: 0.056 value: -1.972144 at 621.491604 '
p1618
aS'stimulus draw for phase 0.055577, at 621.504622'
p1619
aS'stimulus draw for phase 0.069479, at 622.001923'
p1620
aS'stimulus draw for phase 0.083374, at 622.502292'
p1621
aS'stimulus draw for phase 0.097255, at 623.001821'
p1622
aS'staircase Speed bin 3 updated from 1.972144 after response 1 at 623.025445'
p1623
aS'trial 12 key: z at time: 623.025481939'
p1624
aS'trial 12 event z at 623.025490999'
p1625
aS'signal in feature: Fix ecc bin: 3 phase: 0.111 value: -0.091917 at 623.492832 '
p1626
aS'stimulus draw for phase 0.111164, at 623.502846'
p1627
aS'stimulus draw for phase 0.125061, at 624.002994'
p1628
aS'signal in feature: Color ecc bin: 2 phase: 0.139 value: 0.126743 at 624.493261 '
p1629
aS'signal in feature: Speed ecc bin: 2 phase: 0.139 value: 1.404142 at 624.493449 '
p1630
aS'stimulus draw for phase 0.138955, at 624.505074'
p1631
aS'stimulus draw for phase 0.152851, at 625.003273'
p1632
aS'staircase Speed bin 2 updated from 1.404142 after response 1 at 625.143083'
p1633
aS'trial 12 key: m at time: 625.14312005'
p1634
aS'trial 12 event m at 625.143131018'
p1635
aS'stimulus draw for phase 0.166745, at 625.503613'
p1636
aS'stimulus draw for phase 0.180642, at 626.003808'
p1637
aS'stimulus draw for phase 0.194535, at 626.503963'
p1638
aS'stimulus draw for phase 0.208430, at 627.004095'
p1639
aS'signal in feature: Color ecc bin: 2 phase: 0.222 value: -0.126743 at 627.494526 '
p1640
aS'stimulus draw for phase 0.222324, at 627.504459'
p1641
aS'signal in feature: Fix ecc bin: 2 phase: 0.236 value: 0.181587 at 627.994946 '
p1642
aS'stimulus draw for phase 0.236223, at 628.004856'
p1643
aS'stimulus draw for phase 0.250117, at 628.504942'
p1644
aS'stimulus draw for phase 0.264013, at 629.005187'
p1645
aS'signal in feature: Speed ecc bin: 1 phase: 0.278 value: -1.404142 at 629.495597 '
p1646
aS'stimulus draw for phase 0.277908, at 629.507309'
p1647
aS'signal in feature: Color ecc bin: 1 phase: 0.292 value: 0.299373 at 629.995752 '
p1648
aS'stimulus draw for phase 0.291803, at 630.005720'
p1649
aS'staircase Speed bin 1 updated from 1.404142 after response 1 at 630.265819'
p1650
aS'trial 12 key: z at time: 630.265852928'
p1651
aS'trial 12 event z at 630.265861034'
p1652
aS'stimulus draw for phase 0.305698, at 630.505876'
p1653
aS'stimulus draw for phase 0.319595, at 631.006120'
p1654
aS'signal in feature: Speed ecc bin: 1 phase: 0.333 value: -1.037831 at 631.496431 '
p1655
aS'stimulus draw for phase 0.333488, at 631.508950'
p1656
aS'stimulus draw for phase 0.347384, at 632.006520'
p1657
aS'staircase Speed bin 1 updated from 1.037831 after response 1 at 632.099446'
p1658
aS'trial 12 key: z at time: 632.09947896'
p1659
aS'trial 12 event z at 632.09948802'
p1660
aS'stimulus draw for phase 0.361279, at 632.506827'
p1661
aS'stimulus draw for phase 0.375176, at 633.007042'
p1662
aS'signal in feature: Color ecc bin: 0 phase: 0.389 value: 0.139846 at 633.497442 '
p1663
aS'stimulus draw for phase 0.389071, at 633.507495'
p1664
aS'stimulus draw for phase 0.402966, at 634.007513'
p1665
aS'stimulus draw for phase 0.416861, at 634.507712'
p1666
aS'stimulus draw for phase 0.430758, at 635.008021'
p1667
aS'stimulus draw for phase 0.444650, at 635.508160'
p1668
aS'stimulus draw for phase 0.458548, at 636.008417'
p1669
aS'stimulus draw for phase 0.472442, at 636.508717'
p1670
aS'signal in feature: Speed ecc bin: 0 phase: 0.486 value: 2.463448 at 636.999072 '
p1671
aS'stimulus draw for phase 0.486339, at 637.010951'
p1672
aS'stimulus draw for phase 0.500232, at 637.509047'
p1673
aS'staircase Speed bin 0 updated from 2.463448 after response 1 at 637.702760'
p1674
aS'trial 12 key: m at time: 637.702798843'
p1675
aS'trial 12 event m at 637.70281291'
p1676
aS'stimulus draw for phase 0.514128, at 638.009271'
p1677
aS'stimulus draw for phase 0.528023, at 638.509565'
p1678
aS'stimulus draw for phase 0.541919, at 639.009759'
p1679
aS'stimulus draw for phase 0.555813, at 639.509997'
p1680
aS'stimulus draw for phase 0.569710, at 640.010215'
p1681
aS'signal in feature: Color ecc bin: 0 phase: 0.584 value: -0.139846 at 640.500621 '
p1682
aS'stimulus draw for phase 0.583605, at 640.510624'
p1683
aS'signal in feature: Speed ecc bin: 0 phase: 0.598 value: 2.345389 at 641.000916 '
p1684
aS'stimulus draw for phase 0.597501, at 641.013426'
p1685
aS'stimulus draw for phase 0.611395, at 641.510941'
p1686
aS'staircase Speed bin 0 updated from 2.345389 after response 1 at 641.787756'
p1687
aS'trial 12 key: m at time: 641.787791014'
p1688
aS'trial 12 event m at 641.787798882'
p1689
aS'stimulus draw for phase 0.625290, at 642.011090'
p1690
aS'signal in feature: Fix ecc bin: 1 phase: 0.639 value: -0.155176 at 642.501569 '
p1691
aS'stimulus draw for phase 0.639184, at 642.511568'
p1692
aS'stimulus draw for phase 0.653081, at 643.011637'
p1693
aS'signal in feature: Speed ecc bin: 1 phase: 0.667 value: -0.769292 at 643.502042 '
p1694
aS'stimulus draw for phase 0.666976, at 643.513684'
p1695
aS'stimulus draw for phase 0.680873, at 644.012103'
p1696
aS'stimulus draw for phase 0.694766, at 644.512381'
p1697
aS'staircase Speed bin 1 updated from 0.769292 after response 0 at 644.755808'
p1698
aS'trial 12 key: m at time: 644.755842924'
p1699
aS'trial 12 event m at 644.755851984'
p1700
aS'stimulus draw for phase 0.708663, at 645.012551'
p1701
aS'stimulus draw for phase 0.722558, at 645.512894'
p1702
aS'stimulus draw for phase 0.736452, at 646.013169'
p1703
aS'stimulus draw for phase 0.750347, at 646.513245'
p1704
aS'signal in feature: Color ecc bin: 2 phase: 0.764 value: -0.126743 at 647.003631 '
p1705
aS'stimulus draw for phase 0.764244, at 647.013698'
p1706
aS'stimulus draw for phase 0.778130, at 647.513383'
p1707
aS'stimulus draw for phase 0.792034, at 648.013889'
p1708
aS'stimulus draw for phase 0.805930, at 648.514303'
p1709
aS'stimulus draw for phase 0.819826, at 649.014433'
p1710
aS'stimulus draw for phase 0.833720, at 649.514757'
p1711
aS'stimulus draw for phase 0.847615, at 650.014866'
p1712
aS'stimulus draw for phase 0.861511, at 650.515021'
p1713
aS'signal in feature: Color ecc bin: 3 phase: 0.875 value: 0.104438 at 651.005495 '
p1714
aS'stimulus draw for phase 0.875407, at 651.015577'
p1715
aS'signal in feature: Fix ecc bin: 3 phase: 0.889 value: 0.091917 at 651.505797 '
p1716
aS'stimulus draw for phase 0.889303, at 651.515705'
p1717
aS'stimulus draw for phase 0.903196, at 652.015795'
p1718
aS'stimulus draw for phase 0.917090, at 652.515815'
p1719
aS'stimulus draw for phase 0.930988, at 653.016256'
p1720
aS'stimulus draw for phase 0.944882, at 653.516449'
p1721
aS'stimulus draw for phase 0.958773, at 654.016500'
p1722
aS'stimulus draw for phase 0.972672, at 654.516839'
p1723
aS'stimulus draw for phase 0.986568, at 655.017167'
p1724
aS'trial 12 phase 4 started at 655.490195036'
p1725
aa(lp1726
S'trial 13 started at 655.5456779'
p1727
aS'trial 13 phase 1 started at 655.545686007'
p1728
aS'trial 13 phase 2 started at 655.545691013'
p1729
aS'trial 13 phase 3 started at 658.558223009'
p1730
aS'stimulus draw for phase 0.000002, at 658.568985'
p1731
aS'stimulus draw for phase 0.013898, at 659.069131'
p1732
aS'stimulus draw for phase 0.027789, at 659.569150'
p1733
aS'stimulus draw for phase 0.041689, at 660.069648'
p1734
aS'stimulus draw for phase 0.055583, at 660.569827'
p1735
aS'stimulus draw for phase 0.069480, at 661.070074'
p1736
aS'stimulus draw for phase 0.083372, at 661.570171'
p1737
aS'stimulus draw for phase 0.097269, at 662.070476'
p1738
aS'signal in feature: Color ecc bin: 3 phase: 0.111 value: -0.104438 at 662.560778 '
p1739
aS'stimulus draw for phase 0.111164, at 662.570814'
p1740
aS'signal in feature: Speed ecc bin: 2 phase: 0.125 value: 1.037831 at 663.061066 '
p1741
aS'signal in feature: Fix ecc bin: 2 phase: 0.125 value: -0.181587 at 663.064499 '
p1742
aS'stimulus draw for phase 0.125061, at 663.073069'
p1743
aS'stimulus draw for phase 0.138956, at 663.571094'
p1744
aS'stimulus draw for phase 0.152850, at 664.071424'
p1745
aS'staircase Speed bin 2 updated from 1.037831 after response 1 at 664.244663'
p1746
aS'trial 13 key: m at time: 664.244704962'
p1747
aS'trial 13 event m at 664.24471283'
p1748
aS'stimulus draw for phase 0.166745, at 664.571633'
p1749
aS'stimulus draw for phase 0.180642, at 665.071968'
p1750
aS'signal in feature: Speed ecc bin: 2 phase: 0.195 value: 0.769292 at 665.562167 '
p1751
aS'stimulus draw for phase 0.194535, at 665.573867'
p1752
aS'stimulus draw for phase 0.208417, at 666.071543'
p1753
aS'staircase Speed bin 2 updated from 0.769292 after response 1 at 666.382533'
p1754
aS'trial 13 key: m at time: 666.382567883'
p1755
aS'trial 13 event m at 666.382575989'
p1756
aS'stimulus draw for phase 0.222327, at 666.572594'
p1757
aS'stimulus draw for phase 0.236223, at 667.072844'
p1758
aS'signal in feature: Color ecc bin: 1 phase: 0.250 value: -0.299373 at 667.563063 '
p1759
aS'stimulus draw for phase 0.250117, at 667.573146'
p1760
aS'stimulus draw for phase 0.264013, at 668.073168'
p1761
aS'stimulus draw for phase 0.277908, at 668.573422'
p1762
aS'stimulus draw for phase 0.291803, at 669.073644'
p1763
aS'stimulus draw for phase 0.305698, at 669.573995'
p1764
aS'stimulus draw for phase 0.319595, at 670.074156'
p1765
aS'signal in feature: Fix ecc bin: 1 phase: 0.333 value: 0.155176 at 670.564563 '
p1766
aS'stimulus draw for phase 0.333489, at 670.574591'
p1767
aS'stimulus draw for phase 0.347384, at 671.074530'
p1768
aS'stimulus draw for phase 0.361279, at 671.574788'
p1769
aS'stimulus draw for phase 0.375176, at 672.075130'
p1770
aS'stimulus draw for phase 0.389071, at 672.575315'
p1771
aS'stimulus draw for phase 0.402966, at 673.075569'
p1772
aS'stimulus draw for phase 0.416858, at 673.575696'
p1773
aS'stimulus draw for phase 0.430757, at 674.075979'
p1774
aS'signal in feature: Fix ecc bin: 0 phase: 0.445 value: 0.091917 at 674.566366 '
p1775
aS'stimulus draw for phase 0.444651, at 674.576674'
p1776
aS'stimulus draw for phase 0.458548, at 675.076513'
p1777
aS'stimulus draw for phase 0.472437, at 675.576535'
p1778
aS'stimulus draw for phase 0.486339, at 676.076964'
p1779
aS'stimulus draw for phase 0.500232, at 676.577145'
p1780
aS'signal in feature: Color ecc bin: 0 phase: 0.514 value: 0.139846 at 677.067490 '
p1781
aS'stimulus draw for phase 0.514129, at 677.077602'
p1782
aS'signal in feature: Speed ecc bin: 0 phase: 0.528 value: -2.277327 at 677.567754 '
p1783
aS'stimulus draw for phase 0.528023, at 677.579883'
p1784
aS'stimulus draw for phase 0.541918, at 678.077732'
p1785
aS'staircase Speed bin 0 updated from 2.277327 after response 1 at 678.234318'
p1786
aS'trial 13 key: z at time: 678.234357834'
p1787
aS'trial 13 event z at 678.234366894'
p1788
aS'signal in feature: Fix ecc bin: 0 phase: 0.556 value: 0.091917 at 678.568227 '
p1789
aS'stimulus draw for phase 0.555814, at 678.578303'
p1790
aS'stimulus draw for phase 0.569710, at 679.078272'
p1791
aS'stimulus draw for phase 0.583605, at 679.578558'
p1792
aS'signal in feature: Speed ecc bin: 0 phase: 0.597 value: 2.229668 at 680.068864 '
p1793
aS'stimulus draw for phase 0.597500, at 680.080590'
p1794
aS'stimulus draw for phase 0.611395, at 680.578966'
p1795
aS'staircase Speed bin 0 updated from 2.229668 after response 1 at 680.839167'
p1796
aS'trial 13 key: m at time: 680.839201927'
p1797
aS'trial 13 event m at 680.839210033'
p1798
aS'stimulus draw for phase 0.625291, at 681.079293'
p1799
aS'stimulus draw for phase 0.639185, at 681.579413'
p1800
aS'stimulus draw for phase 0.653082, at 682.079686'
p1801
aS'signal in feature: Fix ecc bin: 1 phase: 0.667 value: -0.155176 at 682.569478 '
p1802
aS'stimulus draw for phase 0.666963, at 682.579513'
p1803
aS'stimulus draw for phase 0.680873, at 683.080156'
p1804
aS'signal in feature: Color ecc bin: 1 phase: 0.695 value: -0.299373 at 683.570468 '
p1805
aS'stimulus draw for phase 0.694766, at 683.580779'
p1806
aS'stimulus draw for phase 0.708663, at 684.080641'
p1807
aS'stimulus draw for phase 0.722543, at 684.578663'
p1808
aS'signal in feature: Speed ecc bin: 1 phase: 0.736 value: -1.079242 at 685.071167 '
p1809
aS'stimulus draw for phase 0.736452, at 685.083494'
p1810
aS'signal in feature: Fix ecc bin: 2 phase: 0.750 value: -0.181587 at 685.571488 '
p1811
aS'stimulus draw for phase 0.750349, at 685.581592'
p1812
aS'staircase Speed bin 2 updated from 1.079242 after response 1 at 685.791428'
p1813
aS'trial 13 key: z at time: 685.791460037'
p1814
aS'trial 13 event z at 685.791468859'
p1815
aS'stimulus draw for phase 0.764239, at 686.081342'
p1816
aS'stimulus draw for phase 0.778139, at 686.581742'
p1817
aS'stimulus draw for phase 0.792015, at 687.080359'
p1818
aS'signal in feature: Speed ecc bin: 2 phase: 0.806 value: 0.553748 at 687.572233 '
p1819
aS'stimulus draw for phase 0.805927, at 687.585090'
p1820
aS'stimulus draw for phase 0.819826, at 688.082462'
p1821
aS'staircase Speed bin 2 updated from 0.553748 after response 1 at 688.325984'
p1822
aS'trial 13 key: m at time: 688.326019049'
p1823
aS'trial 13 event m at 688.326026917'
p1824
aS'stimulus draw for phase 0.833719, at 688.582734'
p1825
aS'stimulus draw for phase 0.847616, at 689.083074'
p1826
aS'stimulus draw for phase 0.861510, at 689.583121'
p1827
aS'signal in feature: Speed ecc bin: 3 phase: 0.875 value: -1.404142 at 690.073530 '
p1828
aS'stimulus draw for phase 0.875407, at 690.085340'
p1829
aS'stimulus draw for phase 0.889299, at 690.583469'
p1830
aS'staircase Speed bin 3 updated from 1.404142 after response 1 at 690.876591'
p1831
aS'trial 13 key: z at time: 690.876627922'
p1832
aS'trial 13 event z at 690.876637936'
p1833
aS'stimulus draw for phase 0.903197, at 691.083889'
p1834
aS'signal in feature: Color ecc bin: 3 phase: 0.917 value: -0.104438 at 691.574108 '
p1835
aS'stimulus draw for phase 0.917091, at 691.584144'
p1836
aS'stimulus draw for phase 0.930987, at 692.084291'
p1837
aS'stimulus draw for phase 0.944881, at 692.584450'
p1838
aS'stimulus draw for phase 0.958778, at 693.084846'
p1839
aS'stimulus draw for phase 0.972673, at 693.584989'
p1840
aS'stimulus draw for phase 0.986568, at 694.085240'
p1841
aS'trial 13 phase 4 started at 694.558214903'
p1842
aa(lp1843
S'trial 14 started at 694.614666939'
p1844
aS'trial 14 phase 1 started at 694.614675045'
p1845
aS'trial 14 phase 2 started at 694.614680052'
p1846
aS'trial 14 phase 3 started at 697.626230001'
p1847
aS'stimulus draw for phase 0.000002, at 697.636964'
p1848
aS'stimulus draw for phase 0.013898, at 698.137139'
p1849
aS'stimulus draw for phase 0.027791, at 698.637204'
p1850
aS'stimulus draw for phase 0.041673, at 699.136854'
p1851
aS'signal in feature: Color ecc bin: 3 phase: 0.056 value: 0.104438 at 699.627774 '
p1852
aS'stimulus draw for phase 0.055581, at 699.640015'
p1853
aS'stimulus draw for phase 0.069480, at 700.137971'
p1854
aS'stimulus draw for phase 0.083374, at 700.638267'
p1855
aS'stimulus draw for phase 0.097269, at 701.138489'
p1856
aS'staircase Color bin 3 updated from 0.104438 after response 1 at 701.298676'
p1857
aS'trial 14 key: m at time: 701.298713923'
p1858
aS'trial 14 event m at 701.298723936'
p1859
aS'signal in feature: Speed ecc bin: 3 phase: 0.111 value: -1.037831 at 701.628832 '
p1860
aS'stimulus draw for phase 0.111164, at 701.638905'
p1861
aS'signal in feature: Color ecc bin: 2 phase: 0.125 value: -0.126743 at 702.128727 '
p1862
aS'signal in feature: Fix ecc bin: 2 phase: 0.125 value: 0.181587 at 702.132383 '
p1863
aS'stimulus draw for phase 0.125052, at 702.140938'
p1864
aS'stimulus draw for phase 0.138954, at 702.639078'
p1865
aS'staircase Color bin 2 updated from 0.126743 after response 1 at 702.832609'
p1866
aS'trial 14 key: z at time: 702.832643986'
p1867
aS'trial 14 event z at 702.832651854'
p1868
aS'stimulus draw for phase 0.152850, at 703.139378'
p1869
aS'stimulus draw for phase 0.166745, at 703.639553'
p1870
aS'stimulus draw for phase 0.180642, at 704.139847'
p1871
aS'stimulus draw for phase 0.194535, at 704.640139'
p1872
aS'signal in feature: Color ecc bin: 2 phase: 0.208 value: -0.115083 at 705.130400 '
p1873
aS'stimulus draw for phase 0.208432, at 705.142528'
p1874
aS'stimulus draw for phase 0.222327, at 705.640513'
p1875
aS'staircase Color bin 2 updated from 0.115083 after response 1 at 705.930327'
p1876
aS'trial 14 key: z at time: 705.930363894'
p1877
aS'trial 14 event z at 705.930372'
p1878
aS'stimulus draw for phase 0.236207, at 706.139985'
p1879
aS'signal in feature: Fix ecc bin: 1 phase: 0.250 value: 0.155176 at 706.631138 '
p1880
aS'stimulus draw for phase 0.250116, at 706.641212'
p1881
aS'stimulus draw for phase 0.264013, at 707.141168'
p1882
aS'stimulus draw for phase 0.277906, at 707.641381'
p1883
aS'stimulus draw for phase 0.291803, at 708.141716'
p1884
aS'signal in feature: Speed ecc bin: 1 phase: 0.306 value: -1.031555 at 708.632045 '
p1885
aS'stimulus draw for phase 0.305699, at 708.642041'
p1886
aS'stimulus draw for phase 0.319595, at 709.142111'
p1887
aS'signal in feature: Color ecc bin: 1 phase: 0.333 value: 0.299373 at 709.632507 '
p1888
aS'stimulus draw for phase 0.333489, at 709.644388'
p1889
aS'stimulus draw for phase 0.347384, at 710.142522'
p1890
aS'staircase Color bin 1 updated from 0.299373 after response 1 at 710.182469'
p1891
aS'trial 14 key: m at time: 710.182512999'
p1892
aS'trial 14 event m at 710.182522058'
p1893
aS'stimulus draw for phase 0.361280, at 710.642822'
p1894
aS'stimulus draw for phase 0.375176, at 711.143079'
p1895
aS'stimulus draw for phase 0.389069, at 711.643252'
p1896
aS'signal in feature: Fix ecc bin: 0 phase: 0.403 value: 0.091917 at 712.133731 '
p1897
aS'stimulus draw for phase 0.402967, at 712.143736'
p1898
aS'stimulus draw for phase 0.416861, at 712.643827'
p1899
aS'signal in feature: Speed ecc bin: 0 phase: 0.431 value: 2.192729 at 713.134144 '
p1900
aS'stimulus draw for phase 0.430757, at 713.144249'
p1901
aS'stimulus draw for phase 0.444645, at 713.643937'
p1902
aS'stimulus draw for phase 0.458547, at 714.144550'
p1903
aS'stimulus draw for phase 0.472442, at 714.644693'
p1904
aS'signal in feature: Fix ecc bin: 0 phase: 0.486 value: -0.091917 at 715.135080 '
p1905
aS'stimulus draw for phase 0.486337, at 715.145126'
p1906
aS'stimulus draw for phase 0.500231, at 715.644325'
p1907
aS'signal in feature: Speed ecc bin: 0 phase: 0.514 value: -2.192729 at 716.135518 '
p1908
aS'stimulus draw for phase 0.514128, at 716.145533'
p1909
aS'stimulus draw for phase 0.528024, at 716.645579'
p1910
aS'signal in feature: Color ecc bin: 0 phase: 0.542 value: 0.139846 at 717.135913 '
p1911
aS'stimulus draw for phase 0.541918, at 717.148057'
p1912
aS'stimulus draw for phase 0.555813, at 717.646022'
p1913
aS'staircase Color bin 0 updated from 0.139846 after response 1 at 718.002689'
p1914
aS'trial 14 key: m at time: 718.002727985'
p1915
aS'trial 14 event m at 718.002737045'
p1916
aS'stimulus draw for phase 0.569710, at 718.146365'
p1917
aS'signal in feature: Speed ecc bin: 0 phase: 0.584 value: 2.192729 at 718.636623 '
p1918
aS'signal in feature: Fix ecc bin: 0 phase: 0.584 value: 0.091917 at 718.636814 '
p1919
aS'stimulus draw for phase 0.583603, at 718.646789'
p1920
aS'stimulus draw for phase 0.597500, at 719.146753'
p1921
aS'stimulus draw for phase 0.611395, at 719.647014'
p1922
aS'stimulus draw for phase 0.625292, at 720.147317'
p1923
aS'stimulus draw for phase 0.639185, at 720.647521'
p1924
aS'signal in feature: Fix ecc bin: 1 phase: 0.653 value: 0.155176 at 721.137888 '
p1925
aS'stimulus draw for phase 0.653081, at 721.147920'
p1926
aS'stimulus draw for phase 0.666977, at 721.647966'
p1927
aS'stimulus draw for phase 0.680870, at 722.148031'
p1928
aS'stimulus draw for phase 0.694766, at 722.648443'
p1929
aS'stimulus draw for phase 0.708663, at 723.148618'
p1930
aS'stimulus draw for phase 0.722557, at 723.648872'
p1931
aS'signal in feature: Color ecc bin: 1 phase: 0.736 value: -0.291010 at 724.139140 '
p1932
aS'stimulus draw for phase 0.736452, at 724.151322'
p1933
aS'stimulus draw for phase 0.750350, at 724.649378'
p1934
aS'staircase Color bin 2 updated from 0.291010 after response 1 at 724.742739'
p1935
aS'trial 14 key: z at time: 724.742773056'
p1936
aS'trial 14 event z at 724.742781878'
p1937
aS'stimulus draw for phase 0.764240, at 725.149345'
p1938
aS'stimulus draw for phase 0.778139, at 725.649859'
p1939
aS'signal in feature: Speed ecc bin: 2 phase: 0.792 value: -0.372854 at 726.140140 '
p1940
aS'stimulus draw for phase 0.792035, at 726.150204'
p1941
aS'signal in feature: Color ecc bin: 2 phase: 0.806 value: -0.104438 at 726.640321 '
p1942
aS'stimulus draw for phase 0.805929, at 726.652488'
p1943
aS'stimulus draw for phase 0.819812, at 727.149833'
p1944
aS'staircase Color bin 2 updated from 0.104438 after response 1 at 727.443916'
p1945
aS'trial 14 key: z at time: 727.443951845'
p1946
aS'trial 14 event z at 727.443959951'
p1947
aS'stimulus draw for phase 0.833718, at 727.650584'
p1948
aS'stimulus draw for phase 0.847602, at 728.150284'
p1949
aS'stimulus draw for phase 0.861510, at 728.651116'
p1950
aS'signal in feature: Fix ecc bin: 3 phase: 0.875 value: -0.091917 at 729.141563 '
p1951
aS'stimulus draw for phase 0.875407, at 729.151620'
p1952
aS'signal in feature: Speed ecc bin: 3 phase: 0.889 value: -1.037831 at 729.641685 '
p1953
aS'stimulus draw for phase 0.889300, at 729.651688'
p1954
aS'stimulus draw for phase 0.903197, at 730.151836'
p1955
aS'stimulus draw for phase 0.917091, at 730.652080'
p1956
aS'stimulus draw for phase 0.930986, at 731.152299'
p1957
aS'stimulus draw for phase 0.944882, at 731.652435'
p1958
aS'stimulus draw for phase 0.958764, at 732.152227'
p1959
aS'stimulus draw for phase 0.972673, at 732.652991'
p1960
aS'stimulus draw for phase 0.986568, at 733.153177'
p1961
aS'trial 14 phase 4 started at 733.626225948'
p1962
aa(lp1963
S'trial 15 started at 733.682056904'
p1964
aS'trial 15 phase 1 started at 733.682065964'
p1965
aS'trial 15 phase 2 started at 733.682070971'
p1966
aS'trial 15 phase 3 started at 736.694242954'
p1967
aS'stimulus draw for phase 0.000002, at 736.705497'
p1968
aS'stimulus draw for phase 0.013897, at 737.205678'
p1969
aS'stimulus draw for phase 0.027793, at 737.705921'
p1970
aS'stimulus draw for phase 0.041689, at 738.206214'
p1971
aS'stimulus draw for phase 0.055582, at 738.706328'
p1972
aS'signal in feature: Speed ecc bin: 3 phase: 0.069 value: 1.037831 at 739.196178 '
p1973
aS'stimulus draw for phase 0.069480, at 739.206790'
p1974
aS'stimulus draw for phase 0.083374, at 739.706748'
p1975
aS'stimulus draw for phase 0.097251, at 740.206267'
p1976
aS'stimulus draw for phase 0.111164, at 740.707260'
p1977
aS'signal in feature: Color ecc bin: 2 phase: 0.125 value: 0.093431 at 741.197066 '
p1978
aS'stimulus draw for phase 0.125059, at 741.207378'
p1979
aS'stimulus draw for phase 0.138954, at 741.707669'
p1980
aS'signal in feature: Speed ecc bin: 2 phase: 0.153 value: 0.372854 at 742.197554 '
p1981
aS'stimulus draw for phase 0.152851, at 742.208164'
p1982
aS'stimulus draw for phase 0.166745, at 742.708102'
p1983
aS'stimulus draw for phase 0.180642, at 743.208380'
p1984
aS'stimulus draw for phase 0.194535, at 743.708572'
p1985
aS'stimulus draw for phase 0.208432, at 744.208797'
p1986
aS'stimulus draw for phase 0.222327, at 744.709022'
p1987
aS'stimulus draw for phase 0.236224, at 745.209443'
p1988
aS'stimulus draw for phase 0.250116, at 745.709425'
p1989
aS'signal in feature: Color ecc bin: 1 phase: 0.264 value: 0.283118 at 746.199346 '
p1990
aS'stimulus draw for phase 0.264014, at 746.209707'
p1991
aS'signal in feature: Fix ecc bin: 1 phase: 0.278 value: 0.155176 at 746.699669 '
p1992
aS'stimulus draw for phase 0.277908, at 746.713135'
p1993
aS'stimulus draw for phase 0.291804, at 747.210219'
p1994
aS'staircase Fix bin 1 updated from 0.155176 after response 1 at 747.619923'
p1995
aS'trial 15 key: m at time: 747.619957924'
p1996
aS'trial 15 event m at 747.61996603'
p1997
aS'stimulus draw for phase 0.305699, at 747.710443'
p1998
aS'stimulus draw for phase 0.319596, at 748.210766'
p1999
aS'signal in feature: Speed ecc bin: 1 phase: 0.333 value: 1.031555 at 748.700532 '
p2000
aS'stimulus draw for phase 0.333490, at 748.711093'
p2001
aS'signal in feature: Color ecc bin: 1 phase: 0.347 value: 0.283118 at 749.200717 '
p2002
aS'stimulus draw for phase 0.347385, at 749.211140'
p2003
aS'stimulus draw for phase 0.361281, at 749.711349'
p2004
aS'stimulus draw for phase 0.375176, at 750.211695'
p2005
aS'signal in feature: Fix ecc bin: 0 phase: 0.389 value: -0.091917 at 750.701440 '
p2006
aS'stimulus draw for phase 0.389070, at 750.714007'
p2007
aS'stimulus draw for phase 0.402965, at 751.211996'
p2008
aS'staircase Fix bin 0 updated from 0.091917 after response 1 at 751.338352'
p2009
aS'trial 15 key: z at time: 751.338402987'
p2010
aS'trial 15 event z at 751.338412046'
p2011
aS'stimulus draw for phase 0.416861, at 751.712275'
p2012
aS'signal in feature: Speed ecc bin: 0 phase: 0.431 value: -2.192729 at 752.202159 '
p2013
aS'stimulus draw for phase 0.430756, at 752.212734'
p2014
aS'signal in feature: Fix ecc bin: 0 phase: 0.445 value: -0.083568 at 752.702372 '
p2015
aS'stimulus draw for phase 0.444650, at 752.714264'
p2016
aS'signal in feature: Color ecc bin: 0 phase: 0.459 value: 0.126743 at 753.202559 '
p2017
aS'stimulus draw for phase 0.458547, at 753.211944'
p2018
aS'staircase Fix bin 0 updated from 0.083568 after response 1 at 753.289277'
p2019
aS'trial 15 key: z at time: 753.289310932'
p2020
aS'trial 15 event z at 753.289319992'
p2021
aS'stimulus draw for phase 0.472443, at 753.712795'
p2022
aS'stimulus draw for phase 0.486337, at 754.212995'
p2023
aS'stimulus draw for phase 0.500232, at 754.713327'
p2024
aS'stimulus draw for phase 0.514129, at 755.213373'
p2025
aS'stimulus draw for phase 0.528024, at 755.713673'
p2026
aS'stimulus draw for phase 0.541918, at 756.213886'
p2027
aS'stimulus draw for phase 0.555814, at 756.714133'
p2028
aS'stimulus draw for phase 0.569710, at 757.214377'
p2029
aS'stimulus draw for phase 0.583605, at 757.714509'
p2030
aS'stimulus draw for phase 0.597499, at 758.214840'
p2031
aS'stimulus draw for phase 0.611395, at 758.715046'
p2032
aS'signal in feature: Fix ecc bin: 1 phase: 0.625 value: -0.150556 at 759.205428 '
p2033
aS'stimulus draw for phase 0.625291, at 759.217220'
p2034
aS'stimulus draw for phase 0.639184, at 759.715389'
p2035
aS'staircase Fix bin 1 updated from 0.150556 after response 1 at 759.775552'
p2036
aS'trial 15 key: z at time: 759.775586843'
p2037
aS'trial 15 event z at 759.77559495'
p2038
aS'stimulus draw for phase 0.653080, at 760.215801'
p2039
aS'stimulus draw for phase 0.666976, at 760.716084'
p2040
aS'stimulus draw for phase 0.680872, at 761.216315'
p2041
aS'stimulus draw for phase 0.694766, at 761.716443'
p2042
aS'stimulus draw for phase 0.708661, at 762.216672'
p2043
aS'signal in feature: Color ecc bin: 1 phase: 0.723 value: -0.283118 at 762.706982 '
p2044
aS'stimulus draw for phase 0.722558, at 762.717081'
p2045
aS'stimulus draw for phase 0.736451, at 763.217134'
p2046
aS'stimulus draw for phase 0.750347, at 763.717275'
p2047
aS'signal in feature: Fix ecc bin: 2 phase: 0.764 value: 0.181587 at 764.207706 '
p2048
aS'stimulus draw for phase 0.764243, at 764.220409'
p2049
aS'stimulus draw for phase 0.778139, at 764.717791'
p2050
aS'staircase Fix bin 2 updated from 0.181587 after response 1 at 764.827985'
p2051
aS'trial 15 key: m at time: 764.828037977'
p2052
aS'trial 15 event m at 764.828047991'
p2053
aS'stimulus draw for phase 0.792033, at 765.217983'
p2054
aS'stimulus draw for phase 0.805930, at 765.718237'
p2055
aS'stimulus draw for phase 0.819825, at 766.218483'
p2056
aS'stimulus draw for phase 0.833719, at 766.718606'
p2057
aS'stimulus draw for phase 0.847615, at 767.218916'
p2058
aS'stimulus draw for phase 0.861511, at 767.719201'
p2059
aS'signal in feature: Fix ecc bin: 3 phase: 0.875 value: 0.091917 at 768.209488 '
p2060
aS'stimulus draw for phase 0.875404, at 768.221664'
p2061
aS'stimulus draw for phase 0.889301, at 768.719586'
p2062
aS'staircase Fix bin 3 updated from 0.091917 after response 1 at 768.929718'
p2063
aS'trial 15 key: m at time: 768.929751873'
p2064
aS'trial 15 event m at 768.929760933'
p2065
aS'stimulus draw for phase 0.903195, at 769.219859'
p2066
aS'stimulus draw for phase 0.917091, at 769.720055'
p2067
aS'stimulus draw for phase 0.930987, at 770.220280'
p2068
aS'stimulus draw for phase 0.944881, at 770.720598'
p2069
aS'stimulus draw for phase 0.958777, at 771.220757'
p2070
aS'stimulus draw for phase 0.972673, at 771.720992'
p2071
aS'stimulus draw for phase 0.986567, at 772.221227'
p2072
aS'trial 15 phase 4 started at 772.694223881'
p2073
aa(lp2074
S'trial 16 started at 772.749908924'
p2075
aS'trial 16 phase 1 started at 772.749917984'
p2076
aS'trial 16 phase 2 started at 772.749922037'
p2077
aS'trial 16 phase 3 started at 775.762255907'
p2078
aS'stimulus draw for phase 0.000002, at 775.772996'
p2079
aS'stimulus draw for phase 0.013898, at 776.273087'
p2080
aS'stimulus draw for phase 0.027793, at 776.773355'
p2081
aS'stimulus draw for phase 0.041689, at 777.273648'
p2082
aS'stimulus draw for phase 0.055583, at 777.773822'
p2083
aS'signal in feature: Fix ecc bin: 3 phase: 0.069 value: 0.083568 at 778.264196 '
p2084
aS'stimulus draw for phase 0.069479, at 778.274184'
p2085
aS'signal in feature: Speed ecc bin: 3 phase: 0.083 value: -1.037831 at 778.764405 '
p2086
aS'stimulus draw for phase 0.083374, at 778.776787'
p2087
aS'stimulus draw for phase 0.097269, at 779.274533'
p2088
aS'stimulus draw for phase 0.111164, at 779.774749'
p2089
aS'staircase Speed bin 3 updated from 1.037831 after response 1 at 780.081199'
p2090
aS'trial 16 key: z at time: 780.081235886'
p2091
aS'trial 16 event z at 780.081246853'
p2092
aS'signal in feature: Color ecc bin: 2 phase: 0.125 value: 0.093431 at 780.265054 '
p2093
aS'stimulus draw for phase 0.125060, at 780.275086'
p2094
aS'signal in feature: Fix ecc bin: 2 phase: 0.139 value: 0.176496 at 780.765356 '
p2095
aS'stimulus draw for phase 0.138955, at 780.775632'
p2096
aS'stimulus draw for phase 0.152851, at 781.275449'
p2097
aS'stimulus draw for phase 0.166745, at 781.775658'
p2098
aS'stimulus draw for phase 0.180642, at 782.275935'
p2099
aS'stimulus draw for phase 0.194535, at 782.776090'
p2100
aS'signal in feature: Fix ecc bin: 2 phase: 0.208 value: 0.176496 at 783.266495 '
p2101
aS'stimulus draw for phase 0.208432, at 783.276494'
p2102
aS'stimulus draw for phase 0.222327, at 783.776639'
p2103
aS'stimulus draw for phase 0.236224, at 784.276832'
p2104
aS'stimulus draw for phase 0.250117, at 784.777055'
p2105
aS'stimulus draw for phase 0.264013, at 785.277255'
p2106
aS'signal in feature: Color ecc bin: 1 phase: 0.278 value: 0.283118 at 785.767601 '
p2107
aS'stimulus draw for phase 0.277908, at 785.777656'
p2108
aS'signal in feature: Fix ecc bin: 1 phase: 0.292 value: 0.145807 at 786.267853 '
p2109
aS'stimulus draw for phase 0.291803, at 786.278159'
p2110
aS'stimulus draw for phase 0.305698, at 786.777891'
p2111
aS'signal in feature: Speed ecc bin: 1 phase: 0.320 value: 1.031555 at 787.268317 '
p2112
aS'stimulus draw for phase 0.319595, at 787.280032'
p2113
aS'stimulus draw for phase 0.333489, at 787.778364'
p2114
aS'staircase Speed bin 1 updated from 1.031555 after response 1 at 788.055133'
p2115
aS'trial 16 key: m at time: 788.055171013'
p2116
aS'trial 16 event m at 788.055179834'
p2117
aS'signal in feature: Color ecc bin: 1 phase: 0.347 value: 0.283118 at 788.268725 '
p2118
aS'stimulus draw for phase 0.347384, at 788.278768'
p2119
aS'stimulus draw for phase 0.361279, at 788.778881'
p2120
aS'stimulus draw for phase 0.375176, at 789.279077'
p2121
aS'signal in feature: Fix ecc bin: 0 phase: 0.389 value: -0.075521 at 789.769448 '
p2122
aS'stimulus draw for phase 0.389069, at 789.779752'
p2123
aS'stimulus draw for phase 0.402966, at 790.279511'
p2124
aS'signal in feature: Speed ecc bin: 0 phase: 0.417 value: 2.192729 at 790.769925 '
p2125
aS'stimulus draw for phase 0.416861, at 790.782857'
p2126
aS'stimulus draw for phase 0.430758, at 791.280083'
p2127
aS'staircase Speed bin 0 updated from 2.192729 after response 1 at 791.439537'
p2128
aS'trial 16 key: m at time: 791.439568996'
p2129
aS'trial 16 event m at 791.439578056'
p2130
aS'stimulus draw for phase 0.444649, at 791.780103'
p2131
aS'stimulus draw for phase 0.458548, at 792.280569'
p2132
aS'stimulus draw for phase 0.472442, at 792.780767'
p2133
aS'stimulus draw for phase 0.486325, at 793.280464'
p2134
aS'stimulus draw for phase 0.500232, at 793.781192'
p2135
aS'stimulus draw for phase 0.514129, at 794.281461'
p2136
aS'signal in feature: Speed ecc bin: 0 phase: 0.528 value: -2.162084 at 794.771770 '
p2137
aS'stimulus draw for phase 0.528023, at 794.783923'
p2138
aS'stimulus draw for phase 0.541919, at 795.281938'
p2139
aS'staircase Speed bin 0 updated from 2.162084 after response 1 at 795.471603'
p2140
aS'trial 16 key: z at time: 795.471641064'
p2141
aS'trial 16 event z at 795.471648932'
p2142
aS'stimulus draw for phase 0.555813, at 795.782113'
p2143
aS'stimulus draw for phase 0.569710, at 796.282405'
p2144
aS'stimulus draw for phase 0.583605, at 796.782610'
p2145
aS'signal in feature: Speed ecc bin: 0 phase: 0.598 value: 2.136270 at 797.272919 '
p2146
aS'stimulus draw for phase 0.597500, at 797.285135'
p2147
aS'signal in feature: Color ecc bin: 0 phase: 0.611 value: -0.126743 at 797.773102 '
p2148
aS'signal in feature: Fix ecc bin: 0 phase: 0.611 value: -0.075521 at 797.773328 '
p2149
aS'stimulus draw for phase 0.611394, at 797.783537'
p2150
aS'staircase Speed bin 0 updated from 2.136270 after response 1 at 797.976537'
p2151
aS'trial 16 key: m at time: 797.976575851'
p2152
aS'trial 16 event m at 797.976584911'
p2153
aS'stimulus draw for phase 0.625292, at 798.283348'
p2154
aS'stimulus draw for phase 0.639171, at 798.782886'
p2155
aS'stimulus draw for phase 0.653082, at 799.283833'
p2156
aS'stimulus draw for phase 0.666987, at 799.784392'
p2157
aS'stimulus draw for phase 0.680868, at 800.284068'
p2158
aS'stimulus draw for phase 0.694766, at 800.784413'
p2159
aS'stimulus draw for phase 0.708665, at 801.284707'
p2160
aS'stimulus draw for phase 0.722558, at 801.784930'
p2161
aS'stimulus draw for phase 0.736454, at 802.284912'
p2162
aS'stimulus draw for phase 0.750347, at 802.785346'
p2163
aS'stimulus draw for phase 0.764244, at 803.285627'
p2164
aS'signal in feature: Fix ecc bin: 2 phase: 0.778 value: 0.176496 at 803.775371 '
p2165
aS'stimulus draw for phase 0.778125, at 803.785673'
p2166
aS'stimulus draw for phase 0.792034, at 804.286009'
p2167
aS'stimulus draw for phase 0.805928, at 804.786343'
p2168
aS'stimulus draw for phase 0.819826, at 805.286626'
p2169
aS'stimulus draw for phase 0.833718, at 805.786698'
p2170
aS'stimulus draw for phase 0.847615, at 806.286938'
p2171
aS'stimulus draw for phase 0.861508, at 806.786979'
p2172
aS'stimulus draw for phase 0.875407, at 807.287459'
p2173
aS'signal in feature: Speed ecc bin: 3 phase: 0.889 value: -0.769292 at 807.777830 '
p2174
aS'stimulus draw for phase 0.889303, at 807.789988'
p2175
aS'signal in feature: Color ecc bin: 3 phase: 0.903 value: -0.093431 at 808.277981 '
p2176
aS'stimulus draw for phase 0.903197, at 808.288344'
p2177
aS'staircase Speed bin 3 updated from 0.769292 after response 1 at 808.694353'
p2178
aS'trial 16 key: z at time: 808.694390059'
p2179
aS'trial 16 event z at 808.69439888'
p2180
aS'stimulus draw for phase 0.917091, at 808.788081'
p2181
aS'stimulus draw for phase 0.930989, at 809.288557'
p2182
aS'stimulus draw for phase 0.944892, at 809.788955'
p2183
aS'stimulus draw for phase 0.958778, at 810.288833'
p2184
aS'stimulus draw for phase 0.972671, at 810.788915'
p2185
aS'stimulus draw for phase 0.986568, at 811.289295'
p2186
aS'trial 16 phase 4 started at 811.77886796'
p2187
aa(lp2188
S'trial 17 started at 811.835753918'
p2189
aS'trial 17 phase 1 started at 811.835762024'
p2190
aS'trial 17 phase 2 started at 811.835767031'
p2191
aS'trial 17 phase 3 started at 814.847036839'
p2192
aS'stimulus draw for phase 0.000002, at 814.857634'
p2193
aS'stimulus draw for phase 0.013894, at 815.357840'
p2194
aS'trial 17 key: m at time: 815.69717598'
p2195
aS'trial 17 event m at 815.697185993'
p2196
aS'stimulus draw for phase 0.027792, at 815.858147'
p2197
aS'signal in feature: Fix ecc bin: 3 phase: 0.042 value: -0.083568 at 816.347567 '
p2198
aS'stimulus draw for phase 0.041667, at 816.356700'
p2199
aS'stimulus draw for phase 0.055579, at 816.858346'
p2200
aS'signal in feature: Color ecc bin: 3 phase: 0.069 value: 0.093431 at 817.348796 '
p2201
aS'signal in feature: Speed ecc bin: 3 phase: 0.069 value: 0.553748 at 817.348971 '
p2202
aS'stimulus draw for phase 0.069476, at 817.360517'
p2203
aS'stimulus draw for phase 0.083372, at 817.859003'
p2204
aS'staircase Speed bin 3 updated from 0.553748 after response 1 at 818.065795'
p2205
aS'trial 17 key: m at time: 818.06583786'
p2206
aS'trial 17 event m at 818.06584692'
p2207
aS'stimulus draw for phase 0.097265, at 818.359180'
p2208
aS'stimulus draw for phase 0.111158, at 818.859295'
p2209
aS'stimulus draw for phase 0.125056, at 819.359614'
p2210
aS'stimulus draw for phase 0.138954, at 819.859933'
p2211
aS'signal in feature: Fix ecc bin: 2 phase: 0.153 value: -0.176496 at 820.349602 '
p2212
aS'stimulus draw for phase 0.152833, at 820.359604'
p2213
aS'signal in feature: Color ecc bin: 2 phase: 0.167 value: 0.093431 at 820.850399 '
p2214
aS'stimulus draw for phase 0.166743, at 820.860433'
p2215
aS'stimulus draw for phase 0.180638, at 821.360607'
p2216
aS'stimulus draw for phase 0.194532, at 821.860774'
p2217
aS'stimulus draw for phase 0.208428, at 822.361045'
p2218
aS'signal in feature: Fix ecc bin: 2 phase: 0.222 value: -0.176496 at 822.851415 '
p2219
aS'stimulus draw for phase 0.222325, at 822.861416'
p2220
aS'stimulus draw for phase 0.236219, at 823.361474'
p2221
aS'stimulus draw for phase 0.250114, at 823.861718'
p2222
aS'stimulus draw for phase 0.264010, at 824.361947'
p2223
aS'signal in feature: Speed ecc bin: 1 phase: 0.278 value: -0.999017 at 824.852297 '
p2224
aS'stimulus draw for phase 0.277906, at 824.865525'
p2225
aS'stimulus draw for phase 0.291799, at 825.362358'
p2226
aS'staircase Speed bin 1 updated from 0.999017 after response 1 at 825.718864'
p2227
aS'trial 17 key: z at time: 825.718899965'
p2228
aS'trial 17 event z at 825.718907833'
p2229
aS'stimulus draw for phase 0.305682, at 825.862035'
p2230
aS'stimulus draw for phase 0.319591, at 826.362912'
p2231
aS'stimulus draw for phase 0.333487, at 826.863136'
p2232
aS'stimulus draw for phase 0.347380, at 827.363336'
p2233
aS'signal in feature: Speed ecc bin: 1 phase: 0.361 value: 0.974272 at 827.853655 '
p2234
aS'stimulus draw for phase 0.361277, at 827.865324'
p2235
aS'stimulus draw for phase 0.375172, at 828.363724'
p2236
aS'staircase Speed bin 0 updated from 0.974272 after response 1 at 828.623996'
p2237
aS'trial 17 key: m at time: 828.624033928'
p2238
aS'trial 17 event m at 828.624042988'
p2239
aS'signal in feature: Fix ecc bin: 0 phase: 0.389 value: -0.075521 at 828.854150 '
p2240
aS'stimulus draw for phase 0.389067, at 828.864150'
p2241
aS'signal in feature: Color ecc bin: 0 phase: 0.403 value: 0.126743 at 829.354307 '
p2242
aS'stimulus draw for phase 0.402962, at 829.364339'
p2243
aS'stimulus draw for phase 0.416859, at 829.864500'
p2244
aS'stimulus draw for phase 0.430753, at 830.364764'
p2245
aS'stimulus draw for phase 0.444648, at 830.864934'
p2246
aS'signal in feature: Color ecc bin: 0 phase: 0.459 value: 0.126743 at 831.355064 '
p2247
aS'stimulus draw for phase 0.458539, at 831.364885'
p2248
aS'stimulus draw for phase 0.472424, at 831.861224'
p2249
aS'signal in feature: Fix ecc bin: 0 phase: 0.486 value: 0.075521 at 832.355028 '
p2250
aS'stimulus draw for phase 0.486317, at 832.363254'
p2251
aS'stimulus draw for phase 0.500214, at 832.863987'
p2252
aS'stimulus draw for phase 0.514125, at 833.366094'
p2253
aS'stimulus draw for phase 0.528021, at 833.866327'
p2254
aS'signal in feature: Color ecc bin: 0 phase: 0.542 value: 0.126743 at 834.356625 '
p2255
aS'stimulus draw for phase 0.541915, at 834.366684'
p2256
aS'signal in feature: Speed ecc bin: 0 phase: 0.556 value: 2.114816 at 834.856881 '
p2257
aS'stimulus draw for phase 0.555811, at 834.869080'
p2258
aS'stimulus draw for phase 0.569706, at 835.366941'
p2259
aS'staircase Speed bin 0 updated from 2.114816 after response 1 at 835.457029'
p2260
aS'trial 17 key: m at time: 835.457071066'
p2261
aS'trial 17 event m at 835.457080841'
p2262
aS'stimulus draw for phase 0.583603, at 835.867285'
p2263
aS'stimulus draw for phase 0.597478, at 836.363357'
p2264
aS'stimulus draw for phase 0.611374, at 836.866918'
p2265
aS'stimulus draw for phase 0.625286, at 837.367775'
p2266
aS'stimulus draw for phase 0.639182, at 837.868166'
p2267
aS'signal in feature: Color ecc bin: 1 phase: 0.653 value: 0.283118 at 838.358502 '
p2268
aS'stimulus draw for phase 0.653078, at 838.368546'
p2269
aS'stimulus draw for phase 0.666974, at 838.868673'
p2270
aS'stimulus draw for phase 0.680869, at 839.368807'
p2271
aS'stimulus draw for phase 0.694763, at 839.869049'
p2272
aS'signal in feature: Color ecc bin: 1 phase: 0.709 value: -0.283118 at 840.359271 '
p2273
aS'stimulus draw for phase 0.708656, at 840.369349'
p2274
aS'stimulus draw for phase 0.722555, at 840.869475'
p2275
aS'stimulus draw for phase 0.736435, at 841.369015'
p2276
aS'stimulus draw for phase 0.750343, at 841.869798'
p2277
aS'stimulus draw for phase 0.764240, at 842.370269'
p2278
aS'signal in feature: Color ecc bin: 2 phase: 0.778 value: -0.093431 at 842.859980 '
p2279
aS'signal in feature: Fix ecc bin: 2 phase: 0.778 value: -0.176496 at 842.860198 '
p2280
aS'stimulus draw for phase 0.778123, at 842.870100'
p2281
aS'trial 17 key: m at time: 842.996778965'
p2282
aS'trial 17 event m at 842.996790886'
p2283
aS'signal in feature: Speed ecc bin: 2 phase: 0.792 value: -0.372854 at 843.360175 '
p2284
aS'stimulus draw for phase 0.792017, at 843.372065'
p2285
aS'stimulus draw for phase 0.805927, at 843.870855'
p2286
aS'staircase Speed bin 2 updated from 0.372854 after response 1 at 844.131055'
p2287
aS'trial 17 key: z at time: 844.131089926'
p2288
aS'trial 17 event z at 844.131098032'
p2289
aS'stimulus draw for phase 0.819810, at 844.370622'
p2290
aS'stimulus draw for phase 0.833717, at 844.871411'
p2291
aS'stimulus draw for phase 0.847611, at 845.371605'
p2292
aS'stimulus draw for phase 0.861508, at 845.871873'
p2293
aS'signal in feature: Fix ecc bin: 3 phase: 0.875 value: 0.083568 at 846.362253 '
p2294
aS'stimulus draw for phase 0.875403, at 846.372514'
p2295
aS'stimulus draw for phase 0.889298, at 846.872194'
p2296
aS'stimulus draw for phase 0.903192, at 847.372540'
p2297
aS'stimulus draw for phase 0.917089, at 847.872791'
p2298
aS'stimulus draw for phase 0.930982, at 848.372964'
p2299
aS'stimulus draw for phase 0.944880, at 848.873168'
p2300
aS'stimulus draw for phase 0.958761, at 849.372883'
p2301
aS'stimulus draw for phase 0.972671, at 849.873711'
p2302
aS'stimulus draw for phase 0.986564, at 850.373896'
p2303
aS'trial 17 phase 4 started at 850.863572836'
p2304
aa(lp2305
S'trial 18 started at 850.919759989'
p2306
aS'trial 18 phase 1 started at 850.919769049'
p2307
aS'trial 18 phase 2 started at 850.919774055'
p2308
aS'trial 18 phase 3 started at 853.931601048'
p2309
aS'stimulus draw for phase 0.000002, at 853.942293'
p2310
aS'stimulus draw for phase 0.014360, at 854.459081'
p2311
aS'stimulus draw for phase 0.027793, at 854.942675'
p2312
aS'stimulus draw for phase 0.041689, at 855.442955'
p2313
aS'stimulus draw for phase 0.055583, at 855.943070'
p2314
aS'signal in feature: Speed ecc bin: 3 phase: 0.069 value: -0.372854 at 856.433501 '
p2315
aS'stimulus draw for phase 0.069479, at 856.443543'
p2316
aS'stimulus draw for phase 0.083373, at 856.943422'
p2317
aS'stimulus draw for phase 0.097269, at 857.443741'
p2318
aS'signal in feature: Color ecc bin: 3 phase: 0.111 value: 0.093431 at 857.934152 '
p2319
aS'stimulus draw for phase 0.111164, at 857.946743'
p2320
aS'stimulus draw for phase 0.125059, at 858.444189'
p2321
aS'stimulus draw for phase 0.138954, at 858.944495'
p2322
aS'staircase Color bin 2 updated from 0.093431 after response 1 at 859.004638'
p2323
aS'trial 18 key: m at time: 859.00467205'
p2324
aS'trial 18 event m at 859.004680872'
p2325
aS'signal in feature: Speed ecc bin: 2 phase: 0.153 value: 0.221942 at 859.434870 '
p2326
aS'stimulus draw for phase 0.152851, at 859.444996'
p2327
aS'stimulus draw for phase 0.166744, at 859.944831'
p2328
aS'stimulus draw for phase 0.180642, at 860.445299'
p2329
aS'stimulus draw for phase 0.194535, at 860.945476'
p2330
aS'stimulus draw for phase 0.208432, at 861.445709'
p2331
aS'signal in feature: Speed ecc bin: 2 phase: 0.222 value: 0.221942 at 861.935972 '
p2332
aS'stimulus draw for phase 0.222326, at 861.945885'
p2333
aS'stimulus draw for phase 0.236224, at 862.446051'
p2334
aS'stimulus draw for phase 0.250115, at 862.946240'
p2335
aS'stimulus draw for phase 0.264013, at 863.446616'
p2336
aS'stimulus draw for phase 0.277908, at 863.946839'
p2337
aS'signal in feature: Fix ecc bin: 1 phase: 0.292 value: -0.145807 at 864.437184 '
p2338
aS'stimulus draw for phase 0.291803, at 864.447179'
p2339
aS'signal in feature: Color ecc bin: 1 phase: 0.306 value: -0.283118 at 864.937374 '
p2340
aS'stimulus draw for phase 0.305698, at 864.949327'
p2341
aS'stimulus draw for phase 0.319595, at 865.447534'
p2342
aS'staircase Color bin 1 updated from 0.283118 after response 1 at 865.687288'
p2343
aS'trial 18 key: z at time: 865.687324047'
p2344
aS'trial 18 event z at 865.687332869'
p2345
aS'signal in feature: Speed ecc bin: 1 phase: 0.333 value: 0.952626 at 865.937869 '
p2346
aS'stimulus draw for phase 0.333490, at 865.947757'
p2347
aS'stimulus draw for phase 0.347383, at 866.447903'
p2348
aS'stimulus draw for phase 0.361279, at 866.948140'
p2349
aS'stimulus draw for phase 0.375177, at 867.448517'
p2350
aS'stimulus draw for phase 0.389065, at 867.948364'
p2351
aS'signal in feature: Color ecc bin: 0 phase: 0.403 value: 0.126743 at 868.438990 '
p2352
aS'signal in feature: Speed ecc bin: 0 phase: 0.403 value: 2.093932 at 868.442625 '
p2353
aS'stimulus draw for phase 0.402966, at 868.451282'
p2354
aS'stimulus draw for phase 0.416867, at 868.949355'
p2355
aS'staircase Color bin 0 updated from 0.126743 after response 1 at 869.125647'
p2356
aS'trial 18 key: m at time: 869.12568593'
p2357
aS'trial 18 event m at 869.125695944'
p2358
aS'stimulus draw for phase 0.430759, at 869.449363'
p2359
aS'stimulus draw for phase 0.444651, at 869.949480'
p2360
aS'stimulus draw for phase 0.458547, at 870.449761'
p2361
aS'stimulus draw for phase 0.472446, at 870.950217'
p2362
aS'stimulus draw for phase 0.486337, at 871.450202'
p2363
aS'stimulus draw for phase 0.500233, at 871.950464'
p2364
aS'stimulus draw for phase 0.514129, at 872.450732'
p2365
aS'signal in feature: Speed ecc bin: 0 phase: 0.528 value: 2.093932 at 872.941252 '
p2366
aS'stimulus draw for phase 0.528028, at 872.951320'
p2367
aS'signal in feature: Fix ecc bin: 0 phase: 0.542 value: 0.075521 at 873.441343 '
p2368
aS'stimulus draw for phase 0.541918, at 873.451341'
p2369
aS'stimulus draw for phase 0.555817, at 873.951500'
p2370
aS'stimulus draw for phase 0.569710, at 874.451708'
p2371
aS'stimulus draw for phase 0.583609, at 874.952226'
p2372
aS'stimulus draw for phase 0.597500, at 875.452062'
p2373
aS'stimulus draw for phase 0.611397, at 875.952250'
p2374
aS'stimulus draw for phase 0.625292, at 876.452572'
p2375
aS'signal in feature: Color ecc bin: 1 phase: 0.639 value: -0.275560 at 876.942897 '
p2376
aS'stimulus draw for phase 0.639185, at 876.955151'
p2377
aS'stimulus draw for phase 0.653081, at 877.453167'
p2378
aS'staircase Color bin 1 updated from 0.275560 after response 1 at 877.576146'
p2379
aS'trial 18 key: z at time: 877.576182842'
p2380
aS'trial 18 event z at 877.576191902'
p2381
aS'stimulus draw for phase 0.666962, at 877.952590'
p2382
aS'stimulus draw for phase 0.680871, at 878.453441'
p2383
aS'signal in feature: Speed ecc bin: 1 phase: 0.695 value: -0.952626 at 878.943883 '
p2384
aS'stimulus draw for phase 0.694767, at 878.953947'
p2385
aS'stimulus draw for phase 0.708663, at 879.453967'
p2386
aS'stimulus draw for phase 0.722562, at 879.954409'
p2387
aS'signal in feature: Color ecc bin: 1 phase: 0.736 value: 0.269011 at 880.444515 '
p2388
aS'stimulus draw for phase 0.736452, at 880.456584'
p2389
aS'stimulus draw for phase 0.750350, at 880.954171'
p2390
aS'staircase Color bin 2 updated from 0.269011 after response 1 at 881.081438'
p2391
aS'trial 18 key: m at time: 881.081475019'
p2392
aS'trial 18 event m at 881.081483841'
p2393
aS'stimulus draw for phase 0.764244, at 881.454910'
p2394
aS'stimulus draw for phase 0.778138, at 881.955206'
p2395
aS'stimulus draw for phase 0.792034, at 882.455384'
p2396
aS'stimulus draw for phase 0.805930, at 882.955740'
p2397
aS'stimulus draw for phase 0.819825, at 883.455986'
p2398
aS'signal in feature: Speed ecc bin: 2 phase: 0.834 value: 0.221942 at 883.946273 '
p2399
aS'stimulus draw for phase 0.833723, at 883.956172'
p2400
aS'stimulus draw for phase 0.847615, at 884.456234'
p2401
aS'signal in feature: Fix ecc bin: 2 phase: 0.862 value: -0.176496 at 884.946703 '
p2402
aS'stimulus draw for phase 0.861511, at 884.956708'
p2403
aS'stimulus draw for phase 0.875407, at 885.456799'
p2404
aS'stimulus draw for phase 0.889299, at 885.956962'
p2405
aS'signal in feature: Color ecc bin: 3 phase: 0.903 value: 0.083120 at 886.447306 '
p2406
aS'stimulus draw for phase 0.903196, at 886.459710'
p2407
aS'stimulus draw for phase 0.917092, at 886.957446'
p2408
aS'staircase Color bin 3 updated from 0.083120 after response 1 at 887.334332'
p2409
aS'trial 18 key: m at time: 887.334365845'
p2410
aS'trial 18 event m at 887.334373951'
p2411
aS'stimulus draw for phase 0.930986, at 887.457692'
p2412
aS'stimulus draw for phase 0.944887, at 887.957997'
p2413
aS'stimulus draw for phase 0.958778, at 888.458085'
p2414
aS'stimulus draw for phase 0.972660, at 888.957702'
p2415
aS'stimulus draw for phase 0.986568, at 889.458489'
p2416
aS'trial 18 phase 4 started at 889.948391914'
p2417
aa(lp2418
S'trial 19 started at 890.003882885'
p2419
aS'trial 19 phase 1 started at 890.003891945'
p2420
aS'trial 19 phase 2 started at 890.003895998'
p2421
aS'trial 19 key: m at time: 891.519221067'
p2422
aS'trial 19 event m at 891.519232988'
p2423
aS'trial 19 phase 3 started at 893.016309977'
p2424
aS'stimulus draw for phase 0.000002, at 893.026991'
p2425
aS'stimulus draw for phase 0.013896, at 893.527165'
p2426
aS'stimulus draw for phase 0.027793, at 894.027425'
p2427
aS'stimulus draw for phase 0.041686, at 894.527621'
p2428
aS'stimulus draw for phase 0.055582, at 895.027847'
p2429
aS'stimulus draw for phase 0.069477, at 895.528096'
p2430
aS'stimulus draw for phase 0.083360, at 896.027712'
p2431
aS'signal in feature: Speed ecc bin: 3 phase: 0.097 value: 0.372854 at 896.518606 '
p2432
aS'stimulus draw for phase 0.097267, at 896.528664'
p2433
aS'stimulus draw for phase 0.111164, at 897.028716'
p2434
aS'stimulus draw for phase 0.125048, at 897.528579'
p2435
aS'signal in feature: Color ecc bin: 2 phase: 0.139 value: -0.093431 at 898.019279 '
p2436
aS'signal in feature: Fix ecc bin: 2 phase: 0.139 value: 0.176496 at 898.019499 '
p2437
aS'stimulus draw for phase 0.138954, at 898.031052'
p2438
aS'stimulus draw for phase 0.152849, at 898.529472'
p2439
aS'stimulus draw for phase 0.166745, at 899.029705'
p2440
aS'staircase Fix bin 2 updated from 0.176496 after response 1 at 899.203193'
p2441
aS'trial 19 key: m at time: 899.203238964'
p2442
aS'trial 19 event m at 899.203248024'
p2443
aS'signal in feature: Speed ecc bin: 2 phase: 0.181 value: -0.221942 at 899.520035 '
p2444
aS'stimulus draw for phase 0.180641, at 899.530074'
p2445
aS'stimulus draw for phase 0.194519, at 900.026269'
p2446
aS'stimulus draw for phase 0.208431, at 900.530389'
p2447
aS'stimulus draw for phase 0.222312, at 901.029989'
p2448
aS'stimulus draw for phase 0.236220, at 901.530827'
p2449
aS'stimulus draw for phase 0.250116, at 902.031034'
p2450
aS'stimulus draw for phase 0.264013, at 902.531344'
p2451
aS'signal in feature: Color ecc bin: 1 phase: 0.278 value: 0.262512 at 903.021536 '
p2452
aS'signal in feature: Speed ecc bin: 1 phase: 0.278 value: -0.952626 at 903.021715 '
p2453
aS'stimulus draw for phase 0.277906, at 903.031645'
p2454
aS'stimulus draw for phase 0.291803, at 903.531758'
p2455
aS'stimulus draw for phase 0.305697, at 904.031991'
p2456
aS'stimulus draw for phase 0.319594, at 904.532406'
p2457
aS'stimulus draw for phase 0.333487, at 905.032440'
p2458
aS'stimulus draw for phase 0.347383, at 905.532687'
p2459
aS'stimulus draw for phase 0.361265, at 906.032377'
p2460
aS'stimulus draw for phase 0.375175, at 906.533181'
p2461
aS'stimulus draw for phase 0.389055, at 907.032756'
p2462
aS'stimulus draw for phase 0.402965, at 907.533611'
p2463
aS'signal in feature: Fix ecc bin: 0 phase: 0.417 value: -0.075521 at 908.023985 '
p2464
aS'stimulus draw for phase 0.416860, at 908.035790'
p2465
aS'signal in feature: Speed ecc bin: 0 phase: 0.431 value: 2.093932 at 908.524130 '
p2466
aS'stimulus draw for phase 0.430755, at 908.534166'
p2467
aS'staircase Fix bin 0 updated from 0.075521 after response 1 at 908.790871'
p2468
aS'trial 19 key: z at time: 908.790912867'
p2469
aS'trial 19 event z at 908.790921926'
p2470
aS'stimulus draw for phase 0.444642, at 909.033822'
p2471
aS'stimulus draw for phase 0.458547, at 909.534554'
p2472
aS'stimulus draw for phase 0.472428, at 910.034178'
p2473
aS'stimulus draw for phase 0.486336, at 910.534991'
p2474
aS'stimulus draw for phase 0.500231, at 911.035216'
p2475
aS'stimulus draw for phase 0.514125, at 911.534693'
p2476
aS'signal in feature: Speed ecc bin: 0 phase: 0.528 value: 2.093932 at 912.025808 '
p2477
aS'stimulus draw for phase 0.528023, at 912.035883'
p2478
aS'stimulus draw for phase 0.541917, at 912.535834'
p2479
aS'stimulus draw for phase 0.555817, at 913.035274'
p2480
aS'stimulus draw for phase 0.569709, at 913.536429'
p2481
aS'stimulus draw for phase 0.583602, at 914.036522'
p2482
aS'stimulus draw for phase 0.597499, at 914.536760'
p2483
aS'signal in feature: Speed ecc bin: 0 phase: 0.611 value: 2.093932 at 915.027194 '
p2484
aS'stimulus draw for phase 0.611394, at 915.037230'
p2485
aS'stimulus draw for phase 0.625291, at 915.537262'
p2486
aS'stimulus draw for phase 0.639184, at 916.037444'
p2487
aS'stimulus draw for phase 0.653080, at 916.537843'
p2488
aS'stimulus draw for phase 0.666975, at 917.038024'
p2489
aS'stimulus draw for phase 0.680869, at 917.538102'
p2490
aS'signal in feature: Speed ecc bin: 1 phase: 0.695 value: 0.952626 at 918.028557 '
p2491
aS'stimulus draw for phase 0.694766, at 918.038621'
p2492
aS'stimulus draw for phase 0.708662, at 918.538696'
p2493
aS'stimulus draw for phase 0.722557, at 919.038943'
p2494
aS'stimulus draw for phase 0.736451, at 919.539124'
p2495
aS'signal in feature: Fix ecc bin: 2 phase: 0.750 value: -0.171897 at 920.029454 '
p2496
aS'stimulus draw for phase 0.750345, at 920.041430'
p2497
aS'stimulus draw for phase 0.764244, at 920.539575'
p2498
aS'staircase Fix bin 2 updated from 0.171897 after response 1 at 920.881188'
p2499
aS'trial 19 key: z at time: 920.881224871'
p2500
aS'trial 19 event z at 920.881234884'
p2501
aS'stimulus draw for phase 0.778136, at 921.039801'
p2502
aS'signal in feature: Speed ecc bin: 2 phase: 0.792 value: 0.221942 at 921.530162 '
p2503
aS'stimulus draw for phase 0.792033, at 921.540216'
p2504
aS'stimulus draw for phase 0.805928, at 922.040312'
p2505
aS'signal in feature: Color ecc bin: 2 phase: 0.820 value: -0.093431 at 922.530630 '
p2506
aS'signal in feature: Fix ecc bin: 2 phase: 0.820 value: 0.167095 at 922.530852 '
p2507
aS'stimulus draw for phase 0.819825, at 922.542519'
p2508
aS'stimulus draw for phase 0.833718, at 923.040670'
p2509
aS'staircase Fix bin 2 updated from 0.167095 after response 1 at 923.132830'
p2510
aS'trial 19 key: m at time: 923.132868052'
p2511
aS'trial 19 event m at 923.132876873'
p2512
aS'stimulus draw for phase 0.847614, at 923.540843'
p2513
aS'stimulus draw for phase 0.861510, at 924.041158'
p2514
aS'stimulus draw for phase 0.875405, at 924.541378'
p2515
aS'stimulus draw for phase 0.889293, at 925.041325'
p2516
aS'stimulus draw for phase 0.903196, at 925.541914'
p2517
aS'stimulus draw for phase 0.917088, at 926.041940'
p2518
aS'stimulus draw for phase 0.930985, at 926.542286'
p2519
aS'stimulus draw for phase 0.944882, at 927.042620'
p2520
aS'stimulus draw for phase 0.958777, at 927.542791'
p2521
aS'stimulus draw for phase 0.972671, at 928.043050'
p2522
aS'stimulus draw for phase 0.986565, at 928.543084'
p2523
aS'trial 19 phase 4 started at 929.032911062'
p2524
aa(lp2525
S'trial 20 started at 929.089849949'
p2526
aS'trial 20 phase 1 started at 929.089858055'
p2527
aS'trial 20 phase 2 started at 929.08986187'
p2528
aS'trial 20 phase 3 started at 932.100991964'
p2529
aS'stimulus draw for phase 0.000002, at 932.111554'
p2530
aS'stimulus draw for phase 0.013897, at 932.611865'
p2531
aS'stimulus draw for phase 0.027789, at 933.111954'
p2532
aS'stimulus draw for phase 0.041686, at 933.612242'
p2533
aS'stimulus draw for phase 0.055583, at 934.112581'
p2534
aS'signal in feature: Fix ecc bin: 3 phase: 0.069 value: 0.083568 at 934.602895 '
p2535
aS'stimulus draw for phase 0.069477, at 934.615048'
p2536
aS'stimulus draw for phase 0.083372, at 935.112912'
p2537
aS'staircase Fix bin 3 updated from 0.083568 after response 1 at 935.402897'
p2538
aS'trial 20 key: m at time: 935.402935982'
p2539
aS'trial 20 event m at 935.402945042'
p2540
aS'stimulus draw for phase 0.097267, at 935.613281'
p2541
aS'stimulus draw for phase 0.111164, at 936.113408'
p2542
aS'stimulus draw for phase 0.125059, at 936.613661'
p2543
aS'stimulus draw for phase 0.138955, at 937.113857'
p2544
aS'stimulus draw for phase 0.152849, at 937.614062'
p2545
aS'stimulus draw for phase 0.166738, at 938.114070'
p2546
aS'signal in feature: Color ecc bin: 2 phase: 0.181 value: -0.093431 at 938.604625 '
p2547
aS'signal in feature: Fix ecc bin: 2 phase: 0.181 value: -0.162703 at 938.604847 '
p2548
aS'stimulus draw for phase 0.180638, at 938.616753'
p2549
aS'stimulus draw for phase 0.194531, at 939.114530'
p2550
aS'staircase Fix bin 2 updated from 0.162703 after response 1 at 939.306906'
p2551
aS'trial 20 key: z at time: 939.306946039'
p2552
aS'trial 20 event z at 939.306956053'
p2553
aS'stimulus draw for phase 0.208430, at 939.615074'
p2554
aS'stimulus draw for phase 0.222327, at 940.115325'
p2555
aS'signal in feature: Speed ecc bin: 2 phase: 0.236 value: -0.221942 at 940.605590 '
p2556
aS'stimulus draw for phase 0.236220, at 940.615639'
p2557
aS'signal in feature: Color ecc bin: 1 phase: 0.250 value: -0.262512 at 941.105809 '
p2558
aS'stimulus draw for phase 0.250116, at 941.116152'
p2559
aS'stimulus draw for phase 0.264011, at 941.615978'
p2560
aS'stimulus draw for phase 0.277908, at 942.116253'
p2561
aS'stimulus draw for phase 0.291801, at 942.616421'
p2562
aS'stimulus draw for phase 0.305698, at 943.116677'
p2563
aS'stimulus draw for phase 0.319593, at 943.616915'
p2564
aS'stimulus draw for phase 0.333488, at 944.117128'
p2565
aS'stimulus draw for phase 0.347383, at 944.617365'
p2566
aS'signal in feature: Fix ecc bin: 1 phase: 0.361 value: -0.145807 at 945.107732 '
p2567
aS'stimulus draw for phase 0.361279, at 945.119908'
p2568
aS'signal in feature: Color ecc bin: 0 phase: 0.375 value: 0.115083 at 945.607918 '
p2569
aS'signal in feature: Speed ecc bin: 0 phase: 0.375 value: -2.093932 at 945.608102 '
p2570
aS'stimulus draw for phase 0.375174, at 945.618084'
p2571
aS'staircase Fix bin 0 updated from 0.145807 after response 0 at 945.876760'
p2572
aS'trial 20 key: m at time: 945.876801968'
p2573
aS'trial 20 event m at 945.876811028'
p2574
aS'stimulus draw for phase 0.389069, at 946.118010'
p2575
aS'stimulus draw for phase 0.402964, at 946.618292'
p2576
aS'stimulus draw for phase 0.416861, at 947.118521'
p2577
aS'stimulus draw for phase 0.430754, at 947.618721'
p2578
aS'signal in feature: Fix ecc bin: 0 phase: 0.445 value: 0.068528 at 948.109095 '
p2579
aS'stimulus draw for phase 0.444650, at 948.121121'
p2580
aS'stimulus draw for phase 0.458545, at 948.619165'
p2581
aS'staircase Fix bin 0 updated from 0.068528 after response 0 at 948.876099'
p2582
aS'trial 20 key: z at time: 948.876142979'
p2583
aS'trial 20 event z at 948.876152039'
p2584
aS'stimulus draw for phase 0.472442, at 949.119495'
p2585
aS'stimulus draw for phase 0.486336, at 949.619600'
p2586
aS'stimulus draw for phase 0.500231, at 950.119774'
p2587
aS'stimulus draw for phase 0.514127, at 950.620080'
p2588
aS'signal in feature: Speed ecc bin: 0 phase: 0.528 value: -2.093932 at 951.110292 '
p2589
aS'stimulus draw for phase 0.528018, at 951.120244'
p2590
aS'trial 20 key: m at time: 951.260015965'
p2591
aS'trial 20 event m at 951.260027885'
p2592
aS'stimulus draw for phase 0.541917, at 951.620545'
p2593
aS'stimulus draw for phase 0.555813, at 952.120754'
p2594
aS'stimulus draw for phase 0.569709, at 952.621035'
p2595
aS'stimulus draw for phase 0.583603, at 953.121227'
p2596
aS'stimulus draw for phase 0.597498, at 953.621431'
p2597
aS'stimulus draw for phase 0.611394, at 954.120276'
p2598
aS'signal in feature: Fix ecc bin: 1 phase: 0.625 value: 0.176778 at 954.612067 '
p2599
aS'stimulus draw for phase 0.625288, at 954.624326'
p2600
aS'signal in feature: Color ecc bin: 1 phase: 0.639 value: 0.262512 at 955.112262 '
p2601
aS'stimulus draw for phase 0.639185, at 955.122250'
p2602
aS'staircase Fix bin 1 updated from 0.176778 after response 1 at 955.212123'
p2603
aS'trial 20 key: m at time: 955.212162971'
p2604
aS'trial 20 event m at 955.212172031'
p2605
aS'stimulus draw for phase 0.653080, at 955.622385'
p2606
aS'stimulus draw for phase 0.666976, at 956.122698'
p2607
aS'stimulus draw for phase 0.680868, at 956.622666'
p2608
aS'signal in feature: Speed ecc bin: 1 phase: 0.695 value: -0.952626 at 957.113222 '
p2609
aS'stimulus draw for phase 0.694766, at 957.123274'
p2610
aS'stimulus draw for phase 0.708662, at 957.623390'
p2611
aS'stimulus draw for phase 0.722557, at 958.123587'
p2612
aS'stimulus draw for phase 0.736451, at 958.623824'
p2613
aS'signal in feature: Fix ecc bin: 2 phase: 0.750 value: 0.158086 at 959.114185 '
p2614
aS'stimulus draw for phase 0.750347, at 959.126269'
p2615
aS'stimulus draw for phase 0.764242, at 959.624232'
p2616
aS'staircase Fix bin 2 updated from 0.158086 after response 1 at 959.783500'
p2617
aS'trial 20 key: m at time: 959.78354001'
p2618
aS'trial 20 event m at 959.783548832'
p2619
aS'stimulus draw for phase 0.778137, at 960.124384'
p2620
aS'signal in feature: Color ecc bin: 2 phase: 0.792 value: 0.093431 at 960.614795 '
p2621
aS'stimulus draw for phase 0.792032, at 960.624772'
p2622
aS'stimulus draw for phase 0.805928, at 961.124872'
p2623
aS'signal in feature: Speed ecc bin: 2 phase: 0.820 value: -0.221942 at 961.615330 '
p2624
aS'stimulus draw for phase 0.819824, at 961.625307'
p2625
aS'signal in feature: Fix ecc bin: 2 phase: 0.834 value: 0.153791 at 962.115560 '
p2626
aS'stimulus draw for phase 0.833719, at 962.127836'
p2627
aS'stimulus draw for phase 0.847613, at 962.625595'
p2628
aS'staircase Fix bin 2 updated from 0.153791 after response 1 at 962.698699'
p2629
aS'trial 20 key: m at time: 962.698734999'
p2630
aS'trial 20 event m at 962.698745012'
p2631
aS'stimulus draw for phase 0.861510, at 963.125825'
p2632
aS'stimulus draw for phase 0.875403, at 963.626001'
p2633
aS'stimulus draw for phase 0.889300, at 964.126339'
p2634
aS'stimulus draw for phase 0.903195, at 964.626527'
p2635
aS'signal in feature: Fix ecc bin: 3 phase: 0.917 value: -0.075521 at 965.117032 '
p2636
aS'stimulus draw for phase 0.917093, at 965.129090'
p2637
aS'signal in feature: Speed ecc bin: 3 phase: 0.931 value: 0.372854 at 965.617120 '
p2638
aS'stimulus draw for phase 0.930985, at 965.627135'
p2639
aS'staircase Fix bin 3 updated from 0.075521 after response 1 at 965.785848'
p2640
aS'trial 20 key: z at time: 965.78588891'
p2641
aS'trial 20 event z at 965.785898924'
p2642
aS'stimulus draw for phase 0.944882, at 966.127245'
p2643
aS'stimulus draw for phase 0.958777, at 966.627487'
p2644
aS'stimulus draw for phase 0.972673, at 967.127781'
p2645
aS'stimulus draw for phase 0.986566, at 967.627943'
p2646
aS'trial 20 phase 4 started at 968.117614985'
p2647
aa(lp2648
S'trial 21 started at 968.174121857'
p2649
aS'trial 21 phase 1 started at 968.174129963'
p2650
aS'trial 21 phase 2 started at 968.174135923'
p2651
aS'trial 21 phase 3 started at 971.18564105'
p2652
aS'stimulus draw for phase 0.000002, at 971.196384'
p2653
aS'stimulus draw for phase 0.013897, at 971.696556'
p2654
aS'stimulus draw for phase 0.027794, at 972.196847'
p2655
aS'stimulus draw for phase 0.041685, at 972.696760'
p2656
a(lp2657
I-99
aF4.646033048629761
aaS'trial 21 key: escape at time: 972.820189953'
p2658
aS'trial 21 event escape at 972.82020092'
p2659
aas.