(dp0
S'parameterArray'
p1
(lp2
(dp3
S'num_elements'
p4
cnumpy.core.multiarray
scalar
p5
(cnumpy
dtype
p6
(S'f8'
p7
I0
I1
tp8
Rp9
(I3
S'<'
p10
NNNI-1
I-1
I0
tp11
bS'\x00\x00\x00\x00\x00@\x9f@'
p12
tp13
Rp14
sS'orientation'
p15
g5
(g9
S'^8U)zj\x0f@'
p16
tp17
Rp18
sS'element_size'
p19
F45.0
sS'task_index'
p20
g5
(g6
(S'i8'
p21
I0
I1
tp22
Rp23
(I3
S'<'
p24
NNNI-1
I-1
I0
tp25
bS'\x01\x00\x00\x00\x00\x00\x00\x00'
p26
tp27
Rp28
sS'period'
p29
F36.0
sS'baseline_color_for_task'
p30
F0.75
sS'bar_width_ratio'
p31
F0.08333375
sS'baseline_speed_for_task'
p32
F5.0
sS'unique_task'
p33
I1
sS'refresh_frequency'
p34
F2.0
sS'stim_size'
p35
F0.66667
sS'task_rate'
p36
F3.0
sS'element_spatial_frequency'
p37
F2.0
sa(dp38
g4
g5
(g9
S'\x00\x00\x00\x00\x00@\x9f@'
p39
tp40
Rp41
sg15
g5
(g9
S'\x18-DT\xfb!\xf9?'
p42
tp43
Rp44
sg19
F45.0
sg20
g5
(g23
S'\x00\x00\x00\x00\x00\x00\x00\x00'
p45
tp46
Rp47
sg29
F36.0
sg30
F0.75
sg31
F0.08333375
sg32
F5.0
sg33
I0
sg34
F2.0
sg35
F0.66667
sg36
F3.0
sg37
F2.0
sa(dp48
g4
g5
(g9
S'\x00\x00\x00\x00\x00@\x9f@'
p49
tp50
Rp51
sg15
g5
(g9
S'\xd2!3\x7f|\xd9\x02@'
p52
tp53
Rp54
sg19
F45.0
sg20
g5
(g23
S'\x05\x00\x00\x00\x00\x00\x00\x00'
p55
tp56
Rp57
sg29
F36.0
sg30
F0.75
sg31
F0.08333375
sg32
F5.0
sg33
I2
sg34
F2.0
sg35
F0.66667
sg36
F3.0
sg37
F2.0
sa(dp58
g4
g5
(g9
S'\x00\x00\x00\x00\x00@\x9f@'
p59
tp60
Rp61
sg15
g5
(g9
S'\x00\x00\x00\x00\x00\x00\x00\x00'
p62
tp63
Rp64
sg19
F45.0
sg20
g5
(g23
S'\x01\x00\x00\x00\x00\x00\x00\x00'
p65
tp66
Rp67
sg29
F36.0
sg30
F0.75
sg31
F0.08333375
sg32
F5.0
sg33
I1
sg34
F2.0
sg35
F0.66667
sg36
F3.0
sg37
F2.0
sa(dp68
g4
g5
(g9
S'\x00\x00\x00\x00\x00@\x9f@'
p69
tp70
Rp71
sg15
g5
(g9
S'\x00\x00\x00\x00\x00\x00\x00\x00'
p72
tp73
Rp74
sg19
F45.0
sg20
g5
(g23
S'\x00\x00\x00\x00\x00\x00\x00\x00'
p75
tp76
Rp77
sg29
F36.0
sg30
F0.75
sg31
F0.08333375
sg32
F5.0
sg33
I0
sg34
F2.0
sg35
F0.66667
sg36
F3.0
sg37
F2.0
sasS'eventArray'
p78
(lp79
(lp80
S'trial 0 started at 3.85165309906'
p81
aS'trial 0 key: m at time: 168.308414221'
p82
aS'trial 0 event m at 168.308425188'
p83
a(lp84
I99
aF165.6972279548645
aaS'trial 0 phase 1 started at 169.54889822'
p85
aS'trial 0 key: t at time: 169.548911095'
p86
aS'trial 0 event t at 169.548920155'
p87
aS'trial 0 phase 2 started at 174.547126055'
p88
aS'trial 0 phase 3 started at 177.564149141'
p89
aS'stimulus draw for phase 0.000001, at 177.574942'
p90
aS'stimulus draw for phase 0.014236, at 178.087175'
p91
aS'stimulus draw for phase 0.028087, at 178.585580'
p92
aS'stimulus draw for phase 0.042116, at 179.090956'
p93
aS'stimulus draw for phase 0.055875, at 179.585940'
p94
aS'signal in feature: Color ecc bin: 3 phase: 0.070 value: 0.242108 at 180.080122 '
p95
aS'stimulus draw for phase 0.069869, at 180.090402'
p96
aS'stimulus draw for phase 0.083792, at 180.591357'
p97
aS'stimulus draw for phase 0.097544, at 181.085962'
p98
aS'signal in feature: Speed ecc bin: 3 phase: 0.111 value: -1.972144 at 181.578550 '
p99
aS'stimulus draw for phase 0.111495, at 181.590602'
p100
aS'stimulus draw for phase 0.125381, at 182.088180'
p101
aS'stimulus draw for phase 0.139312, at 182.590103'
p102
aS'stimulus draw for phase 0.153087, at 183.085760'
p103
aS'signal in feature: Fix ecc bin: 2 phase: 0.167 value: -0.192686 at 183.581397 '
p104
aS'stimulus draw for phase 0.167126, at 183.591859'
p105
aS'staircase Speed updated from 1.972144 after response 1 at 183.664938'
p106
aS'trial 0 key: z at time: 183.664971113'
p107
aS'trial 0 event z at 183.664980173'
p108
aS'signal in feature: Speed ecc bin: 2 phase: 0.181 value: 1.972144 at 184.079887 '
p109
aS'stimulus draw for phase 0.180974, at 184.092064'
p110
aS'stimulus draw for phase 0.194842, at 184.589021'
p111
aS'stimulus draw for phase 0.208780, at 185.090988'
p112
aS'signal in feature: Color ecc bin: 2 phase: 0.223 value: -0.242108 at 185.576195 '
p113
aS'stimulus draw for phase 0.222542, at 185.586485'
p114
aS'stimulus draw for phase 0.236549, at 186.090662'
p115
aS'stimulus draw for phase 0.250467, at 186.591760'
p116
aS'stimulus draw for phase 0.264203, at 187.085954'
p117
aS'stimulus draw for phase 0.278155, at 187.588256'
p118
aS'signal in feature: Color ecc bin: 1 phase: 0.292 value: 0.242108 at 188.081524 '
p119
aS'stimulus draw for phase 0.292132, at 188.091960'
p120
aS'stimulus draw for phase 0.305955, at 188.587570'
p121
aS'stimulus draw for phase 0.319846, at 189.087656'
p122
aS'stimulus draw for phase 0.333689, at 189.587395'
p123
aS'stimulus draw for phase 0.347622, at 190.087697'
p124
aS'stimulus draw for phase 0.361460, at 190.587174'
p125
aS'stimulus draw for phase 0.375398, at 191.089114'
p126
aS'stimulus draw for phase 0.389249, at 191.587611'
p127
aS'stimulus draw for phase 0.403278, at 192.092972'
p128
aS'signal in feature: Speed ecc bin: 0 phase: 0.417 value: 1.972144 at 192.576644 '
p129
aS'signal in feature: Fix ecc bin: 0 phase: 0.417 value: 0.192686 at 192.580419 '
p130
aS'stimulus draw for phase 0.416998, at 192.588826'
p131
aS'stimulus draw for phase 0.430945, at 193.087230'
p132
aS'stimulus draw for phase 0.444929, at 193.592211'
p133
aS'stimulus draw for phase 0.458709, at 194.088180'
p134
aS'stimulus draw for phase 0.472694, at 194.591847'
p135
aS'stimulus draw for phase 0.486130, at 195.075587'
p136
aS'stimulus draw for phase 0.500369, at 195.584663'
p137
aS'stimulus draw for phase 0.514381, at 196.092508'
p138
aS'stimulus draw for phase 0.528221, at 196.590775'
p139
aS'signal in feature: Color ecc bin: 0 phase: 0.542 value: -0.242108 at 197.065287 '
p140
aS'stimulus draw for phase 0.541680, at 197.075485'
p141
aS'signal in feature: Speed ecc bin: 0 phase: 0.556 value: 1.972144 at 197.582233 '
p142
aS'stimulus draw for phase 0.556039, at 197.594405'
p143
aS'stimulus draw for phase 0.569456, at 198.075213'
p144
aS'stimulus draw for phase 0.583790, at 198.591312'
p145
aS'stimulus draw for phase 0.597745, at 199.093726'
p146
aS'stimulus draw for phase 0.611565, at 199.591179'
p147
aS'signal in feature: Fix ecc bin: 1 phase: 0.626 value: -0.192686 at 200.083585 '
p148
aS'stimulus draw for phase 0.625520, at 200.093698'
p149
aS'stimulus draw for phase 0.639261, at 200.587974'
p150
aS'stimulus draw for phase 0.652782, at 201.074919'
p151
aS'signal in feature: Color ecc bin: 1 phase: 0.667 value: 0.242108 at 201.582563 '
p152
aS'stimulus draw for phase 0.667160, at 201.592771'
p153
aS'stimulus draw for phase 0.680623, at 202.077183'
p154
aS'stimulus draw for phase 0.694967, at 202.593579'
p155
aS'signal in feature: Speed ecc bin: 1 phase: 0.709 value: -1.972144 at 203.082532 '
p156
aS'signal in feature: Fix ecc bin: 1 phase: 0.709 value: -0.192686 at 203.086322 '
p157
aS'stimulus draw for phase 0.708825, at 203.094953'
p158
aS'stimulus draw for phase 0.722262, at 203.576216'
p159
aS'stimulus draw for phase 0.736153, at 204.076289'
p160
aS'stimulus draw for phase 0.750485, at 204.592270'
p161
aS'stimulus draw for phase 0.764370, at 205.092023'
p162
aS'signal in feature: Fix ecc bin: 2 phase: 0.778 value: 0.192686 at 205.578788 '
p163
aS'stimulus draw for phase 0.778168, at 205.588776'
p164
aS'stimulus draw for phase 0.791690, at 206.075549'
p165
aS'signal in feature: Color ecc bin: 2 phase: 0.806 value: 0.242108 at 206.584318 '
p166
aS'stimulus draw for phase 0.806098, at 206.594521'
p167
aS'stimulus draw for phase 0.819480, at 207.076059'
p168
aS'stimulus draw for phase 0.833370, at 207.576182'
p169
aS'signal in feature: Fix ecc bin: 2 phase: 0.847 value: -0.192686 at 208.065811 '
p170
aS'stimulus draw for phase 0.847249, at 208.076098'
p171
aS'stimulus draw for phase 0.861627, at 208.593311'
p172
aS'stimulus draw for phase 0.875518, at 209.093479'
p173
aS'stimulus draw for phase 0.888957, at 209.577211'
p174
aS'signal in feature: Color ecc bin: 3 phase: 0.903 value: 0.242108 at 210.066880 '
p175
aS'stimulus draw for phase 0.902836, at 210.077065'
p176
aS'stimulus draw for phase 0.916688, at 210.575443'
p177
aS'signal in feature: Speed ecc bin: 3 phase: 0.931 value: -1.404142 at 211.068181 '
p178
aS'stimulus draw for phase 0.930649, at 211.080057'
p179
aS'stimulus draw for phase 0.944974, at 211.593841'
p180
aS'stimulus draw for phase 0.958863, at 212.093988'
p181
aS'stimulus draw for phase 0.972725, at 212.592958'
p182
aS'stimulus draw for phase 0.986609, at 213.092629'
p183
aS'trial 0 phase 4 started at 213.579214096'
p184
aa(lp185
S'trial 1 started at 213.637837172'
p186
aS'trial 1 phase 1 started at 213.637845039'
p187
aS'trial 1 phase 2 started at 213.637850046'
p188
aS'trial 1 phase 3 started at 216.652496099'
p189
aS'stimulus draw for phase 0.000001, at 216.663361'
p190
aS'stimulus draw for phase 0.014242, at 217.174322'
p191
aS'stimulus draw for phase 0.028163, at 217.676856'
p192
aS'stimulus draw for phase 0.041949, at 218.173109'
p193
aS'stimulus draw for phase 0.055917, at 218.674631'
p194
aS'signal in feature: Color ecc bin: 3 phase: 0.070 value: 0.242108 at 219.167224 '
p195
aS'stimulus draw for phase 0.069836, at 219.178920'
p196
aS'signal in feature: Speed ecc bin: 3 phase: 0.084 value: 1.404142 at 219.667635 '
p197
aS'stimulus draw for phase 0.083736, at 219.677730'
p198
aS'staircase Color updated from 0.242108 after response 1 at 219.848836'
p199
aS'trial 1 key: m at time: 219.848867178'
p200
aS'trial 1 event m at 219.848877192'
p201
aS'stimulus draw for phase 0.097572, at 220.175414'
p202
aS'stimulus draw for phase 0.111543, at 220.678702'
p203
aS'stimulus draw for phase 0.125458, at 221.179706'
p204
aS'stimulus draw for phase 0.139343, at 221.679610'
p205
aS'stimulus draw for phase 0.153143, at 222.172880'
p206
aS'stimulus draw for phase 0.167100, at 222.678852'
p207
aS'stimulus draw for phase 0.180863, at 223.173995'
p208
aS'stimulus draw for phase 0.194876, at 223.678746'
p209
aS'stimulus draw for phase 0.208761, at 224.178581'
p210
aS'signal in feature: Color ecc bin: 2 phase: 0.223 value: 0.242108 at 224.667376 '
p211
aS'stimulus draw for phase 0.222621, at 224.680110'
p212
aS'signal in feature: Fix ecc bin: 2 phase: 0.236 value: -0.192686 at 225.166831 '
p213
aS'stimulus draw for phase 0.236496, at 225.175603'
p214
aS'staircase Color updated from 0.242108 after response 1 at 225.236406'
p215
aS'trial 1 key: m at time: 225.23643899'
p216
aS'trial 1 event m at 225.23644805'
p217
aS'stimulus draw for phase 0.250372, at 225.676265'
p218
aS'stimulus draw for phase 0.264236, at 226.175367'
p219
aS'stimulus draw for phase 0.278224, at 226.679153'
p220
aS'stimulus draw for phase 0.292074, at 227.177683'
p221
aS'stimulus draw for phase 0.305933, at 227.676455'
p222
aS'stimulus draw for phase 0.319761, at 228.174320'
p223
aS'signal in feature: Color ecc bin: 1 phase: 0.334 value: -0.242108 at 228.669572 '
p224
aS'stimulus draw for phase 0.333790, at 228.681392'
p225
aS'stimulus draw for phase 0.347693, at 229.180160'
p226
aS'staircase Color updated from 0.242108 after response 1 at 229.252204'
p227
aS'trial 1 key: z at time: 229.252236128'
p228
aS'trial 1 event z at 229.252246141'
p229
aS'stimulus draw for phase 0.361534, at 229.678305'
p230
aS'stimulus draw for phase 0.375404, at 230.176076'
p231
aS'stimulus draw for phase 0.388914, at 230.664142'
p232
aS'stimulus draw for phase 0.403235, at 231.179475'
p233
aS'stimulus draw for phase 0.417130, at 231.679747'
p234
aS'stimulus draw for phase 0.431016, at 232.179714'
p235
aS'stimulus draw for phase 0.444826, at 232.676590'
p236
aS'stimulus draw for phase 0.458336, at 233.163215'
p237
aS'stimulus draw for phase 0.472730, at 233.681307'
p238
aS'stimulus draw for phase 0.486471, at 234.175843'
p239
aS'stimulus draw for phase 0.500365, at 234.676062'
p240
aS'signal in feature: Speed ecc bin: 0 phase: 0.514 value: 1.972144 at 235.167340 '
p241
aS'stimulus draw for phase 0.514286, at 235.177348'
p242
aS'stimulus draw for phase 0.528117, at 235.675007'
p243
aS'stimulus draw for phase 0.542102, at 236.178736'
p244
aS'stimulus draw for phase 0.556035, at 236.680481'
p245
aS'stimulus draw for phase 0.569450, at 237.163405'
p246
aS'signal in feature: Fix ecc bin: 0 phase: 0.583 value: 0.192686 at 237.654167 '
p247
aS'stimulus draw for phase 0.583360, at 237.664553'
p248
aS'stimulus draw for phase 0.597610, at 238.176887'
p249
aS'stimulus draw for phase 0.611143, at 238.664292'
p250
aS'stimulus draw for phase 0.625382, at 239.176717'
p251
aS'stimulus draw for phase 0.639412, at 239.682035'
p252
aS'stimulus draw for phase 0.653158, at 240.176662'
p253
aS'signal in feature: Fix ecc bin: 1 phase: 0.667 value: 0.192686 at 240.654713 '
p254
aS'stimulus draw for phase 0.666709, at 240.664821'
p255
aS'stimulus draw for phase 0.681091, at 241.182453'
p256
aS'stimulus draw for phase 0.694980, at 241.682418'
p257
aS'stimulus draw for phase 0.708859, at 242.182039'
p258
aS'signal in feature: Fix ecc bin: 1 phase: 0.722 value: 0.192686 at 242.653376 '
p259
aS'stimulus draw for phase 0.722228, at 242.663534'
p260
aS'stimulus draw for phase 0.736609, at 243.181120'
p261
aS'stimulus draw for phase 0.750070, at 243.665747'
p262
aS'stimulus draw for phase 0.763925, at 244.165488'
p263
aS'signal in feature: Color ecc bin: 2 phase: 0.778 value: -0.213281 at 244.653087 '
p264
aS'stimulus draw for phase 0.777782, at 244.664679'
p265
aS'signal in feature: Speed ecc bin: 2 phase: 0.792 value: 1.972144 at 245.171151 '
p266
aS'stimulus draw for phase 0.792167, at 245.181224'
p267
aS'staircase Color updated from 0.213281 after response 1 at 245.420062'
p268
aS'trial 1 key: z at time: 245.420094013'
p269
aS'trial 1 event z at 245.420103073'
p270
aS'signal in feature: Fix ecc bin: 2 phase: 0.806 value: -0.192686 at 245.653222 '
p271
aS'stimulus draw for phase 0.805557, at 245.663355'
p272
aS'stimulus draw for phase 0.819501, at 246.164948'
p273
aS'stimulus draw for phase 0.833382, at 246.664995'
p274
aS'signal in feature: Color ecc bin: 2 phase: 0.848 value: -0.190210 at 247.167773 '
p275
aS'stimulus draw for phase 0.847632, at 247.180076'
p276
aS'stimulus draw for phase 0.861159, at 247.664846'
p277
aS'staircase Color updated from 0.190210 after response 1 at 248.155036'
p278
aS'trial 1 key: z at time: 248.155064106'
p279
aS'trial 1 event z at 248.155072212'
p280
aS'stimulus draw for phase 0.875008, at 248.163174'
p281
aS'stimulus draw for phase 0.888902, at 248.662014'
p282
aS'stimulus draw for phase 0.903326, at 249.182874'
p283
aS'stimulus draw for phase 0.917193, at 249.682101'
p284
aS'signal in feature: Color ecc bin: 3 phase: 0.931 value: -0.213281 at 250.173046 '
p285
aS'stimulus draw for phase 0.931109, at 250.184930'
p286
aS'stimulus draw for phase 0.944973, at 250.682135'
p287
aS'stimulus draw for phase 0.958407, at 251.165750'
p288
aS'staircase Color updated from 0.213281 after response 1 at 251.188766'
p289
aS'trial 1 key: z at time: 251.18880105'
p290
aS'trial 1 event z at 251.18881011'
p291
aS'stimulus draw for phase 0.972293, at 251.665680'
p292
aS'stimulus draw for phase 0.986165, at 252.162021'
p293
aS'trial 1 phase 4 started at 252.666898012'
p294
aa(lp295
S'trial 2 started at 252.729490995'
p296
aS'trial 2 phase 1 started at 252.729499102'
p297
aS'trial 2 phase 2 started at 252.729503155'
p298
aS'trial 2 phase 3 started at 255.741762161'
p299
aS'stimulus draw for phase 0.000002, at 255.752499'
p300
aS'stimulus draw for phase 0.014193, at 256.261920'
p301
aS'stimulus draw for phase 0.028169, at 256.766482'
p302
aS'stimulus draw for phase 0.042043, at 257.265887'
p303
aS'signal in feature: Fix ecc bin: 3 phase: 0.056 value: 0.192686 at 257.757830 '
p304
aS'stimulus draw for phase 0.055983, at 257.769403'
p305
aS'stimulus draw for phase 0.069800, at 258.265148'
p306
aS'signal in feature: Color ecc bin: 3 phase: 0.084 value: -0.190210 at 258.754493 '
p307
aS'signal in feature: Speed ecc bin: 3 phase: 0.084 value: 1.404142 at 258.754675 '
p308
aS'stimulus draw for phase 0.083672, at 258.764681'
p309
aS'staircase Fix updated from 0.192686 after response 0 at 259.138225'
p310
aS'trial 2 key: z at time: 259.138258219'
p311
aS'trial 2 event z at 259.13826704'
p312
aS'stimulus draw for phase 0.097559, at 259.262904'
p313
aS'stimulus draw for phase 0.111391, at 259.762251'
p314
aS'stimulus draw for phase 0.125329, at 260.262759'
p315
aS'stimulus draw for phase 0.139193, at 260.763034'
p316
aS'stimulus draw for phase 0.153166, at 261.266412'
p317
aS'stimulus draw for phase 0.166974, at 261.763101'
p318
aS'stimulus draw for phase 0.180998, at 262.268383'
p319
aS'signal in feature: Fix ecc bin: 2 phase: 0.195 value: -0.192686 at 262.752664 '
p320
aS'stimulus draw for phase 0.194731, at 262.765594'
p321
aS'stimulus draw for phase 0.208748, at 263.267225'
p322
aS'staircase Fix updated from 0.192686 after response 1 at 263.576722'
p323
aS'trial 2 key: z at time: 263.576757193'
p324
aS'trial 2 event z at 263.576767206'
p325
aS'stimulus draw for phase 0.222549, at 263.763793'
p326
aS'stimulus draw for phase 0.236399, at 264.262611'
p327
aS'signal in feature: Color ecc bin: 1 phase: 0.250 value: 0.213281 at 264.757334 '
p328
aS'stimulus draw for phase 0.250415, at 264.767514'
p329
aS'stimulus draw for phase 0.264234, at 265.264627'
p330
aS'signal in feature: Speed ecc bin: 1 phase: 0.278 value: 1.972144 at 265.756627 '
p331
aS'stimulus draw for phase 0.278175, at 265.766705'
p332
aS'stimulus draw for phase 0.292082, at 266.267311'
p333
aS'stimulus draw for phase 0.305917, at 266.763862'
p334
aS'stimulus draw for phase 0.319808, at 267.265494'
p335
aS'signal in feature: Color ecc bin: 1 phase: 0.333 value: 0.213281 at 267.743838 '
p336
aS'stimulus draw for phase 0.333374, at 267.754076'
p337
aS'stimulus draw for phase 0.347311, at 268.255685'
p338
aS'stimulus draw for phase 0.361545, at 268.768163'
p339
aS'stimulus draw for phase 0.375384, at 269.264775'
p340
aS'signal in feature: Fix ecc bin: 0 phase: 0.389 value: -0.192686 at 269.757729 '
p341
aS'stimulus draw for phase 0.389313, at 269.770656'
p342
aS'stimulus draw for phase 0.403072, at 270.262716'
p343
aS'staircase Fix updated from 0.192686 after response 1 at 270.594267'
p344
aS'trial 2 key: z at time: 270.594302177'
p345
aS'trial 2 event z at 270.594312191'
p346
aS'stimulus draw for phase 0.417033, at 270.765342'
p347
aS'signal in feature: Speed ecc bin: 0 phase: 0.431 value: 1.972144 at 271.258277 '
p348
aS'stimulus draw for phase 0.430996, at 271.268467'
p349
aS'stimulus draw for phase 0.444776, at 271.764066'
p350
aS'signal in feature: Color ecc bin: 0 phase: 0.459 value: -0.242108 at 272.253366 '
p351
aS'stimulus draw for phase 0.458641, at 272.263445'
p352
aS'stimulus draw for phase 0.472562, at 272.764431'
p353
aS'signal in feature: Fix ecc bin: 0 phase: 0.486 value: -0.173357 at 273.254467 '
p354
aS'stimulus draw for phase 0.486448, at 273.266765'
p355
aS'stimulus draw for phase 0.500406, at 273.765408'
p356
aS'staircase Fix updated from 0.173357 after response 1 at 274.011190'
p357
aS'trial 2 key: z at time: 274.011224031'
p358
aS'trial 2 event z at 274.011233091'
p359
aS'stimulus draw for phase 0.514277, at 274.264851'
p360
aS'stimulus draw for phase 0.527785, at 274.752703'
p361
aS'stimulus draw for phase 0.542090, at 275.267635'
p362
aS'signal in feature: Speed ecc bin: 0 phase: 0.556 value: 1.972144 at 275.760019 '
p363
aS'signal in feature: Fix ecc bin: 0 phase: 0.556 value: -0.157010 at 275.760209 '
p364
aS'stimulus draw for phase 0.556044, at 275.772355'
p365
aS'stimulus draw for phase 0.569773, at 276.264022'
p366
aS'staircase Fix updated from 0.157010 after response 1 at 276.362075'
p367
aS'trial 2 key: z at time: 276.362109184'
p368
aS'trial 2 event z at 276.362120152'
p369
aS'stimulus draw for phase 0.583674, at 276.764392'
p370
aS'signal in feature: Color ecc bin: 0 phase: 0.598 value: -0.242108 at 277.254065 '
p371
aS'stimulus draw for phase 0.597550, at 277.264144'
p372
aS'stimulus draw for phase 0.611550, at 277.768169'
p373
aS'signal in feature: Fix ecc bin: 1 phase: 0.625 value: -0.192686 at 278.259100 '
p374
aS'stimulus draw for phase 0.625462, at 278.271184'
p375
aS'stimulus draw for phase 0.639237, at 278.764712'
p376
aS'staircase Fix updated from 0.192686 after response 1 at 278.973759'
p377
aS'trial 2 key: z at time: 278.973792076'
p378
aS'trial 2 event z at 278.973801136'
p379
aS'stimulus draw for phase 0.652816, at 279.253893'
p380
aS'stimulus draw for phase 0.667041, at 279.765691'
p381
aS'stimulus draw for phase 0.681016, at 280.268782'
p382
aS'stimulus draw for phase 0.694821, at 280.765789'
p383
aS'signal in feature: Speed ecc bin: 1 phase: 0.708 value: 1.972144 at 281.242651 '
p384
aS'stimulus draw for phase 0.708340, at 281.252754'
p385
aS'signal in feature: Color ecc bin: 1 phase: 0.723 value: 0.213281 at 281.755810 '
p386
aS'signal in feature: Fix ecc bin: 1 phase: 0.723 value: -0.173357 at 281.756032 '
p387
aS'stimulus draw for phase 0.722598, at 281.767703'
p388
aS'stimulus draw for phase 0.736117, at 282.252610'
p389
aS'staircase Fix updated from 0.173357 after response 1 at 282.311106'
p390
aS'trial 2 key: z at time: 282.311141014'
p391
aS'trial 2 event z at 282.311151028'
p392
aS'stimulus draw for phase 0.750005, at 282.752511'
p393
aS'stimulus draw for phase 0.763892, at 283.252629'
p394
aS'stimulus draw for phase 0.778243, at 283.769014'
p395
aS'stimulus draw for phase 0.792155, at 284.269945'
p396
aS'stimulus draw for phase 0.805558, at 284.752521'
p397
aS'stimulus draw for phase 0.819503, at 285.254447'
p398
aS'signal in feature: Fix ecc bin: 2 phase: 0.834 value: -0.173357 at 285.759922 '
p399
aS'stimulus draw for phase 0.833819, at 285.771762'
p400
aS'signal in feature: Color ecc bin: 2 phase: 0.848 value: 0.171436 at 286.255554 '
p401
aS'stimulus draw for phase 0.847591, at 286.265691'
p402
aS'stimulus draw for phase 0.861147, at 286.753599'
p403
aS'stimulus draw for phase 0.875034, at 287.253549'
p404
aS'stimulus draw for phase 0.888937, at 287.754111'
p405
aS'signal in feature: Color ecc bin: 3 phase: 0.903 value: -0.190210 at 288.243463 '
p406
aS'signal in feature: Speed ecc bin: 3 phase: 0.903 value: -1.404142 at 288.243653 '
p407
aS'signal in feature: Fix ecc bin: 3 phase: 0.903 value: 0.283916 at 288.243822 '
p408
aS'stimulus draw for phase 0.902807, at 288.255676'
p409
aS'stimulus draw for phase 0.916699, at 288.753526'
p410
aS'staircase Fix updated from 0.283916 after response 1 at 289.113139'
p411
aS'trial 2 key: m at time: 289.1131742'
p412
aS'trial 2 event m at 289.113183022'
p413
aS'stimulus draw for phase 0.931097, at 289.271938'
p414
aS'stimulus draw for phase 0.944904, at 289.768834'
p415
aS'stimulus draw for phase 0.958841, at 290.270725'
p416
aS'stimulus draw for phase 0.972244, at 290.753058'
p417
aS'stimulus draw for phase 0.986123, at 291.252751'
p418
aS'trial 2 phase 4 started at 291.742483139'
p419
aa(lp420
S'trial 3 started at 291.800125122'
p421
aS'trial 3 phase 1 started at 291.80013299'
p422
aS'trial 3 phase 2 started at 291.800137997'
p423
aS'trial 3 phase 3 started at 294.811854124'
p424
aS'stimulus draw for phase 0.000001, at 294.822606'
p425
aS'stimulus draw for phase 0.014200, at 295.333465'
p426
aS'stimulus draw for phase 0.028184, at 295.837066'
p427
aS'stimulus draw for phase 0.042112, at 296.338542'
p428
aS'stimulus draw for phase 0.055880, at 296.833972'
p429
aS'stimulus draw for phase 0.069868, at 297.337645'
p430
aS'stimulus draw for phase 0.083724, at 297.834923'
p431
aS'signal in feature: Color ecc bin: 3 phase: 0.098 value: 0.190210 at 298.329230 '
p432
aS'stimulus draw for phase 0.097687, at 298.339469'
p433
aS'stimulus draw for phase 0.111563, at 298.838722'
p434
aS'stimulus draw for phase 0.125411, at 299.337231'
p435
aS'stimulus draw for phase 0.139220, at 299.834171'
p436
aS'signal in feature: Speed ecc bin: 2 phase: 0.153 value: -1.972144 at 300.326079 '
p437
aS'stimulus draw for phase 0.153158, at 300.339200'
p438
aS'stimulus draw for phase 0.166994, at 300.834079'
p439
aS'signal in feature: Fix ecc bin: 2 phase: 0.181 value: 0.173357 at 301.324296 '
p440
aS'stimulus draw for phase 0.180887, at 301.332557'
p441
aS'staircase Speed updated from 1.972144 after response 0 at 301.464299'
p442
aS'trial 3 key: m at time: 301.464333057'
p443
aS'trial 3 event m at 301.464343071'
p444
aS'stimulus draw for phase 0.194930, at 301.840011'
p445
aS'stimulus draw for phase 0.208703, at 302.335612'
p446
aS'signal in feature: Color ecc bin: 2 phase: 0.223 value: 0.171436 at 302.828569 '
p447
aS'stimulus draw for phase 0.222669, at 302.838710'
p448
aS'stimulus draw for phase 0.236560, at 303.338624'
p449
aS'stimulus draw for phase 0.250002, at 303.822663'
p450
aS'stimulus draw for phase 0.264289, at 304.335317'
p451
aS'stimulus draw for phase 0.278158, at 304.835977'
p452
aS'signal in feature: Color ecc bin: 1 phase: 0.292 value: -0.213281 at 305.312733 '
p453
aS'stimulus draw for phase 0.291674, at 305.322956'
p454
aS'stimulus draw for phase 0.306023, at 305.839483'
p455
aS'stimulus draw for phase 0.319776, at 306.334168'
p456
aS'stimulus draw for phase 0.333766, at 306.837956'
p457
aS'stimulus draw for phase 0.347248, at 307.323445'
p458
aS'stimulus draw for phase 0.361478, at 307.835467'
p459
aS'signal in feature: Fix ecc bin: 0 phase: 0.375 value: -0.143684 at 308.329786 '
p460
aS'stimulus draw for phase 0.375479, at 308.339889'
p461
aS'signal in feature: Speed ecc bin: 0 phase: 0.389 value: 1.972144 at 308.826933 '
p462
aS'stimulus draw for phase 0.389293, at 308.839953'
p463
aS'stimulus draw for phase 0.403163, at 309.336072'
p464
aS'staircase Speed updated from 1.972144 after response 1 at 309.548552'
p465
aS'trial 3 key: m at time: 309.548585176'
p466
aS'trial 3 event m at 309.54859519'
p467
aS'stimulus draw for phase 0.416688, at 309.823359'
p468
aS'stimulus draw for phase 0.430582, at 310.323493'
p469
aS'signal in feature: Fix ecc bin: 0 phase: 0.445 value: -0.143684 at 310.829674 '
p470
aS'stimulus draw for phase 0.444920, at 310.839758'
p471
aS'stimulus draw for phase 0.458715, at 311.335955'
p472
aS'signal in feature: Speed ecc bin: 0 phase: 0.473 value: -1.404142 at 311.825047 '
p473
aS'stimulus draw for phase 0.472573, at 311.837157'
p474
aS'stimulus draw for phase 0.486531, at 312.337008'
p475
aS'staircase Speed updated from 1.404142 after response 1 at 312.729075'
p476
aS'trial 3 key: z at time: 312.729107141'
p477
aS'trial 3 event z at 312.729116201'
p478
aS'stimulus draw for phase 0.500513, at 312.841035'
p479
aS'stimulus draw for phase 0.514271, at 313.335920'
p480
aS'stimulus draw for phase 0.528132, at 313.835015'
p481
aS'stimulus draw for phase 0.541674, at 314.322528'
p482
aS'signal in feature: Color ecc bin: 0 phase: 0.556 value: 0.242108 at 314.826071 '
p483
aS'stimulus draw for phase 0.555936, at 314.836119'
p484
aS'stimulus draw for phase 0.569942, at 315.340485'
p485
aS'stimulus draw for phase 0.583341, at 315.822903'
p486
aS'signal in feature: Fix ecc bin: 0 phase: 0.598 value: 0.143684 at 316.331635 '
p487
aS'stimulus draw for phase 0.597753, at 316.341768'
p488
aS'stimulus draw for phase 0.611605, at 316.840244'
p489
aS'signal in feature: Speed ecc bin: 1 phase: 0.625 value: 1.972144 at 317.328731 '
p490
aS'stimulus draw for phase 0.625451, at 317.340956'
p491
aS'stimulus draw for phase 0.638938, at 317.824290'
p492
aS'staircase Speed updated from 1.972144 after response 1 at 318.081111'
p493
aS'trial 3 key: m at time: 318.081147194'
p494
aS'trial 3 event m at 318.081157207'
p495
aS'stimulus draw for phase 0.653268, at 318.340180'
p496
aS'stimulus draw for phase 0.666691, at 318.823372'
p497
aS'stimulus draw for phase 0.680585, at 319.323364'
p498
aS'signal in feature: Color ecc bin: 1 phase: 0.695 value: 0.213281 at 319.814731 '
p499
aS'signal in feature: Fix ecc bin: 1 phase: 0.695 value: 0.157010 at 319.814953 '
p500
aS'stimulus draw for phase 0.694507, at 319.825366'
p501
aS'stimulus draw for phase 0.708741, at 320.336881'
p502
aS'stimulus draw for phase 0.722744, at 320.841337'
p503
aS'stimulus draw for phase 0.736664, at 321.342468'
p504
aS'stimulus draw for phase 0.750044, at 321.824188'
p505
aS'stimulus draw for phase 0.764414, at 322.341482'
p506
aS'signal in feature: Speed ecc bin: 2 phase: 0.778 value: 2.731507 at 322.831559 '
p507
aS'stimulus draw for phase 0.778307, at 322.843238'
p508
aS'stimulus draw for phase 0.792068, at 323.336694'
p509
aS'staircase Speed updated from 2.731507 after response 1 at 323.550182'
p510
aS'trial 3 key: m at time: 323.550215006'
p511
aS'trial 3 event m at 323.550225019'
p512
aS'signal in feature: Fix ecc bin: 2 phase: 0.806 value: 0.173357 at 323.829501 '
p513
aS'stimulus draw for phase 0.806027, at 323.839550'
p514
aS'stimulus draw for phase 0.819967, at 324.341285'
p515
aS'stimulus draw for phase 0.833371, at 324.823780'
p516
aS'stimulus draw for phase 0.847288, at 325.324799'
p517
aS'stimulus draw for phase 0.861117, at 325.822190'
p518
aS'signal in feature: Fix ecc bin: 3 phase: 0.875 value: -0.271303 at 326.313037 '
p519
aS'stimulus draw for phase 0.875019, at 326.321782'
p520
aS'signal in feature: Color ecc bin: 3 phase: 0.889 value: 0.190210 at 326.814970 '
p521
aS'stimulus draw for phase 0.888958, at 326.825259'
p522
aS'stimulus draw for phase 0.903319, at 327.342069'
p523
aS'stimulus draw for phase 0.916731, at 327.824824'
p524
aS'stimulus draw for phase 0.930619, at 328.324862'
p525
aS'stimulus draw for phase 0.944498, at 328.824376'
p526
aS'stimulus draw for phase 0.958882, at 329.342363'
p527
aS'stimulus draw for phase 0.972769, at 329.842251'
p528
aS'stimulus draw for phase 0.986141, at 330.322007'
p529
aS'trial 3 phase 4 started at 330.816123009'
p530
aa(lp531
S'trial 4 started at 330.871505022'
p532
aS'trial 4 phase 1 started at 330.871513128'
p533
aS'trial 4 phase 2 started at 330.871518135'
p534
aS'trial 4 phase 3 started at 333.883517027'
p535
aS'stimulus draw for phase 0.000001, at 333.894164'
p536
aS'stimulus draw for phase 0.014332, at 334.410082'
p537
aS'stimulus draw for phase 0.028119, at 334.904895'
p538
aS'stimulus draw for phase 0.042086, at 335.409264'
p539
aS'signal in feature: Speed ecc bin: 3 phase: 0.056 value: 1.404142 at 335.895794 '
p540
aS'stimulus draw for phase 0.055883, at 335.904521'
p541
aS'stimulus draw for phase 0.069813, at 336.407307'
p542
aS'stimulus draw for phase 0.083657, at 336.905637'
p543
aS'stimulus draw for phase 0.097582, at 337.406938'
p544
aS'stimulus draw for phase 0.111441, at 337.905916'
p545
aS'signal in feature: Color ecc bin: 2 phase: 0.125 value: 0.171436 at 338.397184 '
p546
aS'signal in feature: Fix ecc bin: 2 phase: 0.125 value: -0.173357 at 338.400779 '
p547
aS'stimulus draw for phase 0.125364, at 338.409085'
p548
aS'stimulus draw for phase 0.139254, at 338.905712'
p549
aS'staircase Color updated from 0.171436 after response 1 at 339.286641'
p550
aS'trial 4 key: m at time: 339.286675215'
p551
aS'trial 4 event m at 339.28668499'
p552
aS'stimulus draw for phase 0.153101, at 339.405458'
p553
aS'stimulus draw for phase 0.167032, at 339.907048'
p554
aS'signal in feature: Speed ecc bin: 2 phase: 0.181 value: -2.463448 at 340.396028 '
p555
aS'stimulus draw for phase 0.180887, at 340.406106'
p556
aS'stimulus draw for phase 0.194845, at 340.907045'
p557
aS'stimulus draw for phase 0.208780, at 341.410323'
p558
aS'stimulus draw for phase 0.222625, at 341.907209'
p559
aS'stimulus draw for phase 0.236550, at 342.410026'
p560
aS'stimulus draw for phase 0.250359, at 342.906866'
p561
aS'stimulus draw for phase 0.264238, at 343.406509'
p562
aS'signal in feature: Color ecc bin: 1 phase: 0.279 value: -0.213281 at 343.915005 '
p563
aS'signal in feature: Speed ecc bin: 1 phase: 0.279 value: -1.404142 at 343.917777 '
p564
aS'stimulus draw for phase 0.278639, at 343.925036'
p565
aS'stimulus draw for phase 0.292019, at 344.406547'
p566
aS'staircase Color updated from 0.213281 after response 1 at 344.779197'
p567
aS'trial 4 key: z at time: 344.779230118'
p568
aS'trial 4 event z at 344.779240131'
p569
aS'stimulus draw for phase 0.305998, at 344.910124'
p570
aS'stimulus draw for phase 0.319845, at 345.408412'
p571
aS'stimulus draw for phase 0.333694, at 345.906961'
p572
aS'stimulus draw for phase 0.347654, at 346.409730'
p573
aS'signal in feature: Fix ecc bin: 1 phase: 0.361 value: -0.157010 at 346.897674 '
p574
aS'stimulus draw for phase 0.361490, at 346.906399'
p575
aS'signal in feature: Color ecc bin: 0 phase: 0.375 value: 0.242108 at 347.400972 '
p576
aS'stimulus draw for phase 0.375466, at 347.412678'
p577
aS'stimulus draw for phase 0.388910, at 347.894930'
p578
aS'staircase Color updated from 0.242108 after response 1 at 348.186109'
p579
aS'trial 4 key: m at time: 348.18614316'
p580
aS'trial 4 event m at 348.18615222'
p581
aS'stimulus draw for phase 0.403245, at 348.410963'
p582
aS'stimulus draw for phase 0.417065, at 348.908283'
p583
aS'stimulus draw for phase 0.430568, at 349.394720'
p584
aS'signal in feature: Color ecc bin: 0 phase: 0.445 value: -0.213281 at 349.898053 '
p585
aS'signal in feature: Speed ecc bin: 0 phase: 0.445 value: -1.037831 at 349.901717 '
p586
aS'stimulus draw for phase 0.444833, at 349.910213'
p587
aS'stimulus draw for phase 0.458768, at 350.409788'
p588
aS'staircase Color updated from 0.213281 after response 1 at 350.801029'
p589
aS'trial 4 key: z at time: 350.8010571'
p590
aS'trial 4 event z at 350.801067114'
p591
aS'stimulus draw for phase 0.472234, at 350.894567'
p592
aS'stimulus draw for phase 0.486631, at 351.412987'
p593
aS'signal in feature: Color ecc bin: 0 phase: 0.500 value: 0.190210 at 351.900172 '
p594
aS'stimulus draw for phase 0.500445, at 351.913033'
p595
aS'stimulus draw for phase 0.514358, at 352.410994'
p596
aS'signal in feature: Speed ecc bin: 0 phase: 0.528 value: -1.037831 at 352.884260 '
p597
aS'stimulus draw for phase 0.527780, at 352.894468'
p598
aS'staircase Color updated from 0.190210 after response 0 at 353.071783'
p599
aS'trial 4 key: z at time: 353.071816206'
p600
aS'trial 4 event z at 353.07182622'
p601
aS'stimulus draw for phase 0.542132, at 353.410857'
p602
aS'signal in feature: Fix ecc bin: 0 phase: 0.556 value: -0.143684 at 353.886485 '
p603
aS'stimulus draw for phase 0.555618, at 353.896871'
p604
aS'signal in feature: Color ecc bin: 0 phase: 0.569 value: -0.279688 at 354.384463 '
p605
aS'stimulus draw for phase 0.569453, at 354.396225'
p606
aS'stimulus draw for phase 0.583774, at 354.909985'
p607
aS'staircase Color updated from 0.279688 after response 1 at 355.232382'
p608
aS'trial 4 key: z at time: 355.232415199'
p609
aS'trial 4 event z at 355.232425213'
p610
aS'stimulus draw for phase 0.597709, at 355.411725'
p611
aS'stimulus draw for phase 0.611597, at 355.911666'
p612
aS'stimulus draw for phase 0.625442, at 356.409998'
p613
aS'signal in feature: Color ecc bin: 1 phase: 0.639 value: -0.190210 at 356.901745 '
p614
aS'signal in feature: Fix ecc bin: 1 phase: 0.639 value: 0.157010 at 356.905882 '
p615
aS'stimulus draw for phase 0.639377, at 356.915004'
p616
aS'stimulus draw for phase 0.653310, at 357.413361'
p617
aS'signal in feature: Speed ecc bin: 1 phase: 0.667 value: -1.404142 at 357.885504 '
p618
aS'stimulus draw for phase 0.666703, at 357.895699'
p619
aS'staircase Color updated from 0.190210 after response 1 at 357.920073'
p620
aS'trial 4 key: z at time: 357.92010808'
p621
aS'trial 4 event z at 357.920118093'
p622
aS'stimulus draw for phase 0.681018, at 358.410823'
p623
aS'stimulus draw for phase 0.694822, at 358.907598'
p624
aS'signal in feature: Color ecc bin: 1 phase: 0.708 value: 0.171436 at 359.386456 '
p625
aS'stimulus draw for phase 0.708397, at 359.398809'
p626
aS'stimulus draw for phase 0.722738, at 359.912767'
p627
aS'staircase Color updated from 0.171436 after response 1 at 359.969281'
p628
aS'trial 4 key: m at time: 359.969315052'
p629
aS'trial 4 event m at 359.969324112'
p630
aS'signal in feature: Speed ecc bin: 1 phase: 0.736 value: 1.404142 at 360.385149 '
p631
aS'stimulus draw for phase 0.736138, at 360.395287'
p632
aS'stimulus draw for phase 0.750517, at 360.912766'
p633
aS'signal in feature: Fix ecc bin: 2 phase: 0.764 value: 0.173357 at 361.386479 '
p634
aS'stimulus draw for phase 0.763951, at 361.396569'
p635
aS'stimulus draw for phase 0.777782, at 361.892755'
p636
aS'stimulus draw for phase 0.791727, at 362.396416'
p637
aS'stimulus draw for phase 0.805561, at 362.892749'
p638
aS'signal in feature: Fix ecc bin: 2 phase: 0.820 value: -0.173357 at 363.402542 '
p639
aS'stimulus draw for phase 0.819953, at 363.412678'
p640
aS'signal in feature: Speed ecc bin: 2 phase: 0.833 value: 2.463448 at 363.884739 '
p641
aS'stimulus draw for phase 0.833348, at 363.894750'
p642
aS'signal in feature: Color ecc bin: 2 phase: 0.847 value: -0.154972 at 364.385542 '
p643
aS'stimulus draw for phase 0.847263, at 364.397888'
p644
aS'stimulus draw for phase 0.861172, at 364.896394'
p645
aS'stimulus draw for phase 0.875065, at 365.396257'
p646
aS'staircase Color updated from 0.154972 after response 0 at 365.472050'
p647
aS'trial 4 key: m at time: 365.472083092'
p648
aS'trial 4 event m at 365.472093105'
p649
aS'stimulus draw for phase 0.888948, at 365.896317'
p650
aS'stimulus draw for phase 0.902780, at 366.393940'
p651
a(lp652
I-99
aF35.66531419754028
aaS'trial 4 key: escape at time: 366.536849022'
p653
aS'trial 4 event escape at 366.536859989'
p654
aas.